Archive member included to satisfy reference by file (symbol)

lib/libbootloader.a(boot_platform_8910.c.obj)
                              (--whole-archive)
lib/libbootloader.a(boot_secure.c.obj)
                              (--whole-archive)
lib/libbootloader.a(boot_entry_v7a.S.obj)
                              (--whole-archive)
lib/libbootloader.a(boot_sffs_port.c.obj)
                              (--whole-archive)
lib/libbootloader.a(boot_delay.c.obj)
                              (--whole-archive)
lib/libbootloader.a(boot_mem.c.obj)
                              (--whole-archive)
lib/libbootloader.a(boot_spi_flash.c.obj)
                              (--whole-archive)
lib/libbootloader.a(boot_debuguart.c.obj)
                              (--whole-archive)
lib/libbootloader.a(boot_trace.c.obj)
                              (--whole-archive)
lib/libbootloader.a(boot_fdl.c.obj)
                              (--whole-archive)
lib/libbootloader.a(boot_fdl_dnld.c.obj)
                              (--whole-archive)
lib/libbootloader.a(boot_aes.c.obj)
                              (--whole-archive)
lib/libbootloader.a(boot_vfs.c.obj)
                              (--whole-archive)
lib/libbootloader.a(boot_irq.c.obj)
                              (--whole-archive)
lib/libbootloader.a(boot_timer.c.obj)
                              (--whole-archive)
lib/libbootloader.a(boot_uart.c.obj)
                              (--whole-archive)
lib/libbootloader.a(boot_uart_cmn.c.obj)
                              (--whole-archive)
lib/libbootloader.a(boot_mmu.c.obj)
                              (--whole-archive)
lib/libbootloader.a(boot_uimage.c.obj)
                              (--whole-archive)
lib/libbootloader.a(boot_udc.c.obj)
                              (--whole-archive)
lib/libbootloader.a(boot_usb_fdl_channel.c.obj)
                              (--whole-archive)
lib/libbootloader.a(boot_pdl.c.obj)
                              (--whole-archive)
lib/libbootloader.a(boot_pdl_uimage.c.obj)
                              (--whole-archive)
lib/libbootloader.a(boot_lcd.c.obj)
                              (--whole-archive)
lib/libbootloader.a(boot_unity.c.obj)
                              (--whole-archive)
lib/libbootloader.a(boot_override.c.obj)
                              (--whole-archive)
lib/libbootloader.a(boot_adi_bus.c.obj)
                              (--whole-archive)
lib/libbootloader.a(boot_log.c.obj)
                              (--whole-archive)
lib/libhal.a(hal_clock_init.c.obj)
                              components/bootloader/CMakeFiles/boot2.dir/boot/boot2_start_8910.c.obj (halRamInit)
lib/libhal.a(hal_chip_8910.c.obj)
                              lib/libbootloader.a(boot_usb_fdl_channel.c.obj) (osiDCacheClean)
lib/libhal.a(hal_pmu_8910.c.obj)
                              lib/libbootloader.a(boot_unity.c.obj) (halPmuExtFlashPowerOn)
lib/libhal.a(hal_efuse_8910.c.obj)
                              lib/libbootloader.a(boot_secure.c.obj) (halEfuseOpen)
lib/libhal.a(hal_delay.c.obj)
                              components/bootloader/CMakeFiles/boot2.dir/boot/boot2_start_8910.c.obj (osiDelayUS)
lib/libhal.a(hal_reg_apply.c.obj)
                              lib/libhal.a(hal_clock_init.c.obj) (halApplyRegisters)
lib/libhal.a(hal_chip.c.obj)  lib/libbootloader.a(boot_uart.c.obj) (halCalcDivider20)
lib/libhal.a(hal_chip_armv7a.c.obj)
                              lib/libbootloader.a(boot_platform_8910.c.obj) (halSaveBlueScreenReg)
lib/libhal.a(hal_hwspinlock.c.obj)
                              lib/libhal.a(hal_efuse_8910.c.obj) (halHwspinlockAcquire)
lib/libhal.a(hal_spi_flash.c.obj)
                              lib/libbootloader.a(boot_spi_flash.c.obj) (halSpiFlashChipErase)
lib/libhal.a(hal_gpio.c.obj)  lib/libhal.a(hal_pmu_8910.c.obj) (halGpioSetOutput)
lib/libosi_lib.a(osi_fifo.c.obj)
                              lib/libbootloader.a(boot_usb_fdl_channel.c.obj) (osiFifoInit)
lib/libfupdate_core.a(fupdate_bootloader.c.obj)
                              components/bootloader/CMakeFiles/boot2.dir/boot/boot2_start_8910.c.obj (fupdateGetUpdatingType)
lib/libfupdate_core.a(fupdate_common.c.obj)
                              lib/libfupdate_core.a(fupdate_bootloader.c.obj) (fupdateBlockedFname)
lib/libfsmount.a(fs_mount.c.obj)
                              lib/libbootloader.a(boot_fdl_dnld.c.obj) (fsMountFsPath)
lib/libsffs_core.a(sffs.c.obj)
                              lib/libbootloader.a(boot_vfs.c.obj) (sffsMount)
lib/libsffs_core.a(lzmar.c.obj)
                              lib/libfupdate_core.a(fupdate_bootloader.c.obj) (lzmarCompress)
lib/libsffs_core.a(LzmaEnc.c.obj)
                              lib/libsffs_core.a(lzmar.c.obj) (LzmaEncode)
lib/libsffs_core.a(LzmaDec.c.obj)
                              lib/libsffs_core.a(lzmar.c.obj) (LzmaDecode2)
lib/libsffs_core.a(LzFind.c.obj)
                              lib/libsffs_core.a(LzmaEnc.c.obj) (MatchFinder_Construct)
lib/libbdev.a(block_device.c.obj)
                              lib/libsffs_core.a(sffs.c.obj) (blockDeviceRead)
lib/libbdev.a(partition_block_device.c.obj)
                              lib/libfsmount.a(fs_mount.c.obj) (partBlockDeviceCreate)
lib/libbdev_core.a(flash_block_device_v2.c.obj)
                              lib/libfsmount.a(fs_mount.c.obj) (flashBlockDeviceCreateV2)
lib/libboot_ex_ql.a(quec_boot_fota.c.obj)
                              lib/libbootloader.a(boot_vfs.c.obj) (quec_check_path_type)
lib/libhal.a(hal_lzma.c.obj)  lib/libfupdate_core.a(fupdate_bootloader.c.obj) (halLzmaDataSize)
../../components/newlib/armca5/libc.a(lib_a-memcmp.o)
                              lib/libbootloader.a(boot_secure.c.obj) (memcmp)
../../components/newlib/armca5/libc.a(lib_a-memcpy-stub.o)
                              lib/libbootloader.a(boot_spi_flash.c.obj) (memcpy)
../../components/newlib/armca5/libc.a(lib_a-memmove.o)
                              lib/libsffs_core.a(LzFind.c.obj) (memmove)
../../components/newlib/armca5/libc.a(lib_a-memset.o)
                              lib/libbootloader.a(boot_secure.c.obj) (memset)
../../components/newlib/armca5/libc.a(lib_a-strcat.o)
                              lib/libbootloader.a(boot_vfs.c.obj) (strcat)
../../components/newlib/armca5/libc.a(lib_a-strchr.o)
                              lib/libbootloader.a(boot_vfs.c.obj) (strchr)
../../components/newlib/armca5/libc.a(lib_a-strcpy.o)
                              lib/libsffs_core.a(sffs.c.obj) (strcpy)
../../components/newlib/armca5/libc.a(lib_a-strdup.o)
                              lib/libbootloader.a(boot_vfs.c.obj) (strdup)
../../components/newlib/armca5/libc.a(lib_a-strdup_r.o)
                              ../../components/newlib/armca5/libc.a(lib_a-strdup.o) (_strdup_r)
../../components/newlib/armca5/libc.a(lib_a-strlen.o)
                              lib/libbootloader.a(boot_fdl_dnld.c.obj) (strlen)
../../components/newlib/armca5/libc.a(lib_a-strncmp.o)
                              lib/libbootloader.a(boot_fdl_dnld.c.obj) (strncmp)
../../components/newlib/armca5/libc.a(lib_a-strrchr.o)
                              lib/libbootloader.a(boot_vfs.c.obj) (strrchr)
../../components/newlib/armca5/libc.a(lib_a-getreent.o)
                              ../../components/newlib/armca5/libc.a(lib_a-strdup.o) (__getreent)
../../prebuilts/win32/gcc-arm-none-eabi/bin/../lib/gcc/arm-none-eabi/7.2.1/thumb/v7-ar/fpv3/hard/libgcc.a(_udivsi3.o)
                              lib/libbootloader.a(boot_udc.c.obj) (__aeabi_uidiv)
../../prebuilts/win32/gcc-arm-none-eabi/bin/../lib/gcc/arm-none-eabi/7.2.1/thumb/v7-ar/fpv3/hard/libgcc.a(_divsi3.o)
                              lib/libbootloader.a(boot_lcd.c.obj) (__aeabi_idiv)
../../prebuilts/win32/gcc-arm-none-eabi/bin/../lib/gcc/arm-none-eabi/7.2.1/thumb/v7-ar/fpv3/hard/libgcc.a(_dvmd_tls.o)
                              ../../prebuilts/win32/gcc-arm-none-eabi/bin/../lib/gcc/arm-none-eabi/7.2.1/thumb/v7-ar/fpv3/hard/libgcc.a(_udivsi3.o) (__aeabi_idiv0)
../../prebuilts/win32/gcc-arm-none-eabi/bin/../lib/gcc/arm-none-eabi/7.2.1/thumb/v7-ar/fpv3/hard/libgcc.a(_aeabi_ldivmod.o)
                              lib/libhal.a(hal_pmu_8910.c.obj) (__aeabi_ldivmod)
../../prebuilts/win32/gcc-arm-none-eabi/bin/../lib/gcc/arm-none-eabi/7.2.1/thumb/v7-ar/fpv3/hard/libgcc.a(_aeabi_uldivmod.o)
                              lib/libhal.a(hal_chip.c.obj) (__aeabi_uldivmod)
../../prebuilts/win32/gcc-arm-none-eabi/bin/../lib/gcc/arm-none-eabi/7.2.1/thumb/v7-ar/fpv3/hard/libgcc.a(_udivmoddi4.o)
                              ../../prebuilts/win32/gcc-arm-none-eabi/bin/../lib/gcc/arm-none-eabi/7.2.1/thumb/v7-ar/fpv3/hard/libgcc.a(_aeabi_ldivmod.o) (__udivmoddi4)
lib/libboot_calclib_crc.a(crc32.c.obj)
                              lib/libbootloader.a(boot_fdl_dnld.c.obj) (crc32Init)
lib/libboot_ex_fat_rdonly.a(quec_boot_pff_rdonly.c.obj)
                              lib/libbootloader.a(boot_vfs.c.obj) (quec_bootVfsOpen)
lib/libboot_ex_fat_rdonly.a(quec_boot_vfs.c.obj)
                              lib/libboot_ex_fat_rdonly.a(quec_boot_pff_rdonly.c.obj) (bootfs)
lib/libboot_ex_fat_rdonly.a(pff_rdonly.c.obj)
                              lib/libboot_ex_fat_rdonly.a(quec_boot_pff_rdonly.c.obj) (pf_mount)
lib/libboot_ex_fat_rdonly.a(quec_boot_block_device.c.obj)
                              lib/libboot_ex_fat_rdonly.a(quec_boot_vfs.c.obj) (quec_blockDeviceRead)
lib/libboot_ex_fat_rdonly.a(diskio.c.obj)
                              lib/libboot_ex_fat_rdonly.a(pff_rdonly.c.obj) (disk_readp)
lib/libboot_ex_fat_rdonly.a(pff_basic.c.obj)
                              lib/libboot_ex_fat_rdonly.a(pff_rdonly.c.obj) (ld_word)
lib/libboot_ex_sdmmc.a(quec_boot_sdmmc.c.obj)
                              components/bootloader/CMakeFiles/boot2.dir/boot/boot2_start_8910.c.obj (ql_boot_sdmmc_cfg)
lib/libboot_ex_sdmmc.a(quec_boot_sd.c.obj)
                              components/bootloader/CMakeFiles/boot2.dir/boot/boot2_start_8910.c.obj (quec_boot_sdmmc_init)
lib/libboot_ex_sdmmc.a(quec_boot_ifc.c.obj)
                              lib/libboot_ex_sdmmc.a(quec_boot_sd.c.obj) (bootdrvIfcChannelInit)
lib/libboot_ex_spi6nor.a(quec_spi6_ext_norflash_cfg.c.obj)
                              lib/libhal.a(hal_spi_flash.c.obj) (ql_set_spi6_ext_nor_flash_status)
lib/libboot_ex_spi6nor.a(quec_boot_pin_power_domain.c.obj)
                              lib/libboot_ex_spi6nor.a(quec_spi6_ext_norflash_cfg.c.obj) (quec_boot_pin_init)
lib/libboot_ex_ql_pin.a(quec_boot_pin_map.c.obj)
                              lib/libboot_ex_spi6nor.a(quec_spi6_ext_norflash_cfg.c.obj) (quec_boot_spi6_pin_cfg_map)
lib/libcalclib.a(decompress_unlzma.c.obj)
                              lib/libfupdate_core.a(fupdate_bootloader.c.obj) (lzmaDecompressProbe)
lib/libhal_prop.a(ql_hal_spi_flash_prop.c.obj)
                              lib/libhal.a(hal_spi_flash.c.obj) (quec_spi_flash_props_init)
lib/libhal_prop.a(hal_iomux.c.obj)
                              lib/libhal.a(hal_chip_8910.c.obj) (halIomuxSetFunction)
lib/libfs_partinfo.a(ql_fs_part_info.c.obj)
                              lib/libfsmount.a(fs_mount.c.obj) (quec_fs_part_info_init)
lib/libfs_partinfo.a(partinfo.bin.S.obj)
                              lib/libfs_partinfo.a(ql_fs_part_info.c.obj) (gPartInfo)

Allocating common symbols
Common symbol       size              file

quec_boot_block_dev
                    0x8               lib/libboot_ex_fat_rdonly.a(quec_boot_vfs.c.obj)
FatFs               0x8               lib/libboot_ex_fat_rdonly.a(pff_basic.c.obj)
v_tra_pubModuleControl
                    0x4               lib/libbootloader.a(boot_log.c.obj)
gBlueScreenCp15     0xd4              lib/libhal.a(hal_chip_armv7a.c.obj)
v_tra_categoryControl
                    0x4               lib/libbootloader.a(boot_log.c.obj)
gTraceSequence      0x4               lib/libbootloader.a(boot_log.c.obj)
v_tra_lteModuleControl
                    0x4               lib/libbootloader.a(boot_log.c.obj)
LfnBuf              0xa2              lib/libboot_ex_fat_rdonly.a(pff_basic.c.obj)
sxs_IoCtx           0x44              lib/libbootloader.a(boot_log.c.obj)
gBlueScreenRegs     0x1bc             lib/libhal.a(hal_chip_armv7a.c.obj)

Discarded input sections

 .text          0x00000000        0x0 components/bootloader/CMakeFiles/boot2.dir/boot/boot2_start_8910.c.obj
 .data          0x00000000        0x0 components/bootloader/CMakeFiles/boot2.dir/boot/boot2_start_8910.c.obj
 .bss           0x00000000        0x0 components/bootloader/CMakeFiles/boot2.dir/boot/boot2_start_8910.c.obj
 .text.quec_boot_gpio_example
                0x00000000       0x30 components/bootloader/CMakeFiles/boot2.dir/boot/boot2_start_8910.c.obj
 .rodata.quec_boot_gpio_example.str1.1
                0x00000000        0xc components/bootloader/CMakeFiles/boot2.dir/boot/boot2_start_8910.c.obj
 COMMON         0x00000000        0x0 components/bootloader/CMakeFiles/boot2.dir/boot/boot2_start_8910.c.obj
 .text          0x00000000        0x0 lib/libbootloader.a(boot_platform_8910.c.obj)
 .data          0x00000000        0x0 lib/libbootloader.a(boot_platform_8910.c.obj)
 .bss           0x00000000        0x0 lib/libbootloader.a(boot_platform_8910.c.obj)
 .text.bootSecondOffsetBytes
                0x00000000        0x4 lib/libbootloader.a(boot_platform_8910.c.obj)
 .text          0x00000000        0x0 lib/libbootloader.a(boot_secure.c.obj)
 .data          0x00000000        0x0 lib/libbootloader.a(boot_secure.c.obj)
 .bss           0x00000000        0x0 lib/libbootloader.a(boot_secure.c.obj)
 .text.bootFakeEnableSecure
                0x00000000       0x68 lib/libbootloader.a(boot_secure.c.obj)
 .text.bootSecureEmbeddedSigCheck
                0x00000000       0x20 lib/libbootloader.a(boot_secure.c.obj)
 .text.bootAntiCloneEncryption
                0x00000000       0x4c lib/libbootloader.a(boot_secure.c.obj)
 .text.bootAntiCloneDecryption
                0x00000000       0x34 lib/libbootloader.a(boot_secure.c.obj)
 .text          0x00000000        0x0 lib/libbootloader.a(boot_entry_v7a.S.obj)
 .data          0x00000000        0x0 lib/libbootloader.a(boot_entry_v7a.S.obj)
 .bss           0x00000000        0x0 lib/libbootloader.a(boot_entry_v7a.S.obj)
 .text          0x00000000        0x0 lib/libbootloader.a(boot_sffs_port.c.obj)
 .data          0x00000000        0x0 lib/libbootloader.a(boot_sffs_port.c.obj)
 .bss           0x00000000        0x0 lib/libbootloader.a(boot_sffs_port.c.obj)
 .text.drvSpiFlashRead
                0x00000000        0x4 lib/libbootloader.a(boot_sffs_port.c.obj)
 .text.drvSpiFlashReadCheck
                0x00000000        0x4 lib/libbootloader.a(boot_sffs_port.c.obj)
 .text.drvSpiFlashCapacity
                0x00000000        0x4 lib/libbootloader.a(boot_sffs_port.c.obj)
 .text          0x00000000        0x0 lib/libbootloader.a(boot_delay.c.obj)
 .data          0x00000000        0x0 lib/libbootloader.a(boot_delay.c.obj)
 .bss           0x00000000        0x0 lib/libbootloader.a(boot_delay.c.obj)
 .text.bootElapsedTime
                0x00000000       0x1c lib/libbootloader.a(boot_delay.c.obj)
 .text          0x00000000        0x0 lib/libbootloader.a(boot_mem.c.obj)
 .data          0x00000000        0x0 lib/libbootloader.a(boot_mem.c.obj)
 .bss           0x00000000        0x0 lib/libbootloader.a(boot_mem.c.obj)
 .text.bootShowMemInfo
                0x00000000       0x48 lib/libbootloader.a(boot_mem.c.obj)
 .text.bootHeapDefaultIram
                0x00000000       0x10 lib/libbootloader.a(boot_mem.c.obj)
 .text.bootIramMalloc
                0x00000000        0xc lib/libbootloader.a(boot_mem.c.obj)
 .text.bootIramCalloc
                0x00000000       0x10 lib/libbootloader.a(boot_mem.c.obj)
 .text.realloc  0x00000000       0x6c lib/libbootloader.a(boot_mem.c.obj)
 .rodata.bootShowMemInfo.str1.1
                0x00000000       0x1d lib/libbootloader.a(boot_mem.c.obj)
 .text          0x00000000        0x0 lib/libbootloader.a(boot_spi_flash.c.obj)
 .data          0x00000000        0x0 lib/libbootloader.a(boot_spi_flash.c.obj)
 .bss           0x00000000        0x0 lib/libbootloader.a(boot_spi_flash.c.obj)
 .text.bootSpiFlashClearRangeWriteProhibit
                0x00000000       0x3a lib/libbootloader.a(boot_spi_flash.c.obj)
 .text.bootSpiFlashID
                0x00000000        0x6 lib/libbootloader.a(boot_spi_flash.c.obj)
 .text.bootSpiFlashCapacity
                0x00000000        0x6 lib/libbootloader.a(boot_spi_flash.c.obj)
 .text.bootSpiFlashOffsetValid
                0x00000000        0xc lib/libbootloader.a(boot_spi_flash.c.obj)
 .text.bootSpiFlashMapAddressValid
                0x00000000       0x18 lib/libbootloader.a(boot_spi_flash.c.obj)
 .text.bootSpiFlashIsDone
                0x00000000        0x6 lib/libbootloader.a(boot_spi_flash.c.obj)
 .text.bootSpiFlashWaitDone
                0x00000000       0x16 lib/libbootloader.a(boot_spi_flash.c.obj)
 .text.bootSpiFlashChipErase
                0x00000000       0x36 lib/libbootloader.a(boot_spi_flash.c.obj)
 .text.bootSpiFlashRead
                0x00000000       0x26 lib/libbootloader.a(boot_spi_flash.c.obj)
 .text.bootSpiFlashReadCheck
                0x00000000       0x2e lib/libbootloader.a(boot_spi_flash.c.obj)
 .text.bootSpiFlashReadUniqueId
                0x00000000        0x6 lib/libbootloader.a(boot_spi_flash.c.obj)
 .text          0x00000000        0x0 lib/libbootloader.a(boot_debuguart.c.obj)
 .data          0x00000000        0x0 lib/libbootloader.a(boot_debuguart.c.obj)
 .bss           0x00000000        0x0 lib/libbootloader.a(boot_debuguart.c.obj)
 .text          0x00000000        0x0 lib/libbootloader.a(boot_trace.c.obj)
 .data          0x00000000        0x0 lib/libbootloader.a(boot_trace.c.obj)
 .bss           0x00000000        0x0 lib/libbootloader.a(boot_trace.c.obj)
 .text          0x00000000        0x0 lib/libbootloader.a(boot_fdl.c.obj)
 .data          0x00000000        0x0 lib/libbootloader.a(boot_fdl.c.obj)
 .bss           0x00000000        0x0 lib/libbootloader.a(boot_fdl.c.obj)
 .text._fdl_read.isra.1
                0x00000000       0x2e lib/libbootloader.a(boot_fdl.c.obj)
 .text._fdl_write_all.isra.2
                0x00000000       0x1c lib/libbootloader.a(boot_fdl.c.obj)
 .text.fdlEngineCreate
                0x00000000       0x34 lib/libbootloader.a(boot_fdl.c.obj)
 .text.fdlEngineDestroy
                0x00000000       0x18 lib/libbootloader.a(boot_fdl.c.obj)
 .text.fdlEngineGetChannel
                0x00000000        0x4 lib/libbootloader.a(boot_fdl.c.obj)
 .text.fdlEngineGetMaxPacketLen
                0x00000000        0x4 lib/libbootloader.a(boot_fdl.c.obj)
 .text.fdlEngineReadRaw
                0x00000000        0xe lib/libbootloader.a(boot_fdl.c.obj)
 .text.fdlEngineWriteRaw
                0x00000000       0x18 lib/libbootloader.a(boot_fdl.c.obj)
 .text.fdlEngineSendPacket
                0x00000000      0x114 lib/libbootloader.a(boot_fdl.c.obj)
 .text.fdlEngineSendVersion
                0x00000000       0x40 lib/libbootloader.a(boot_fdl.c.obj)
 .text.fdlEngineSendRespNoData
                0x00000000       0x1a lib/libbootloader.a(boot_fdl.c.obj)
 .text.fdlEngineSendRespData
                0x00000000       0x60 lib/libbootloader.a(boot_fdl.c.obj)
 .text.fdlEngineSetBaud
                0x00000000        0xa lib/libbootloader.a(boot_fdl.c.obj)
 .text.fdlEngineProcess
                0x00000000      0x170 lib/libbootloader.a(boot_fdl.c.obj)
 .text.fdlEngineIdentify
                0x00000000       0x42 lib/libbootloader.a(boot_fdl.c.obj)
 .rodata.fdlEngineCreate.str1.1
                0x00000000       0x23 lib/libbootloader.a(boot_fdl.c.obj)
 .rodata.fdlEngineProcess.str1.1
                0x00000000       0x7e lib/libbootloader.a(boot_fdl.c.obj)
 .rodata.fdlEngineSendRespData.str1.1
                0x00000000       0x1d lib/libbootloader.a(boot_fdl.c.obj)
 .rodata.fdlEngineSendVersion.str1.1
                0x00000000       0x22 lib/libbootloader.a(boot_fdl.c.obj)
 .debug_info    0x00000000     0x1ac0 lib/libbootloader.a(boot_fdl.c.obj)
 .debug_abbrev  0x00000000      0x4c2 lib/libbootloader.a(boot_fdl.c.obj)
 .debug_loc     0x00000000      0xb11 lib/libbootloader.a(boot_fdl.c.obj)
 .debug_aranges
                0x00000000       0x90 lib/libbootloader.a(boot_fdl.c.obj)
 .debug_ranges  0x00000000      0x130 lib/libbootloader.a(boot_fdl.c.obj)
 .debug_line    0x00000000      0x4d1 lib/libbootloader.a(boot_fdl.c.obj)
 .debug_str     0x00000000     0x1521 lib/libbootloader.a(boot_fdl.c.obj)
 .comment       0x00000000       0x7f lib/libbootloader.a(boot_fdl.c.obj)
 .debug_frame   0x00000000      0x1c0 lib/libbootloader.a(boot_fdl.c.obj)
 .ARM.attributes
                0x00000000       0x3d lib/libbootloader.a(boot_fdl.c.obj)
 .text          0x00000000        0x0 lib/libbootloader.a(boot_fdl_dnld.c.obj)
 .data          0x00000000        0x0 lib/libbootloader.a(boot_fdl_dnld.c.obj)
 .bss           0x00000000        0x0 lib/libbootloader.a(boot_fdl_dnld.c.obj)
 .text.prvFlashPolling
                0x00000000       0xac lib/libbootloader.a(boot_fdl_dnld.c.obj)
 .text.prvPolling
                0x00000000       0x8c lib/libbootloader.a(boot_fdl_dnld.c.obj)
 .text.prvFlashSkipEraseCheck
                0x00000000       0x4c lib/libbootloader.a(boot_fdl_dnld.c.obj)
 .text.prvMountModem.isra.2
                0x00000000        0xc lib/libbootloader.a(boot_fdl_dnld.c.obj)
 .text.prvFactoryNvHack
                0x00000000       0x70 lib/libbootloader.a(boot_fdl_dnld.c.obj)
 .text.prvMountFactory
                0x00000000       0x20 lib/libbootloader.a(boot_fdl_dnld.c.obj)
 .text.prvFsPrepare.part.5
                0x00000000       0x2c lib/libbootloader.a(boot_fdl_dnld.c.obj)
 .text.prvProcessPkt
                0x00000000      0xbc4 lib/libbootloader.a(boot_fdl_dnld.c.obj)
 .text.fdlDnldStart
                0x00000000      0x11c lib/libbootloader.a(boot_fdl_dnld.c.obj)
 .rodata        0x00000000        0x8 lib/libbootloader.a(boot_fdl_dnld.c.obj)
 .rodata.__FUNCTION__.48385
                0x00000000        0xf lib/libbootloader.a(boot_fdl_dnld.c.obj)
 .rodata.fdlDnldStart.str1.1
                0x00000000       0xd0 lib/libbootloader.a(boot_fdl_dnld.c.obj)
 .rodata.prvFlashSkipEraseCheck.str1.1
                0x00000000       0x33 lib/libbootloader.a(boot_fdl_dnld.c.obj)
 .rodata.prvMountFactory.str1.1
                0x00000000        0x9 lib/libbootloader.a(boot_fdl_dnld.c.obj)
 .rodata.prvMountModem.isra.2.str1.1
                0x00000000        0x7 lib/libbootloader.a(boot_fdl_dnld.c.obj)
 .rodata.prvPolling.str1.1
                0x00000000       0x3e lib/libbootloader.a(boot_fdl_dnld.c.obj)
 .rodata.prvProcessPkt.str1.1
                0x00000000      0x2ce lib/libbootloader.a(boot_fdl_dnld.c.obj)
 .debug_info    0x00000000     0x3e18 lib/libbootloader.a(boot_fdl_dnld.c.obj)
 .debug_abbrev  0x00000000      0x4f9 lib/libbootloader.a(boot_fdl_dnld.c.obj)
 .debug_loc     0x00000000     0x2220 lib/libbootloader.a(boot_fdl_dnld.c.obj)
 .debug_aranges
                0x00000000       0x60 lib/libbootloader.a(boot_fdl_dnld.c.obj)
 .debug_ranges  0x00000000      0x378 lib/libbootloader.a(boot_fdl_dnld.c.obj)
 .debug_line    0x00000000      0x7da lib/libbootloader.a(boot_fdl_dnld.c.obj)
 .debug_str     0x00000000     0x21b0 lib/libbootloader.a(boot_fdl_dnld.c.obj)
 .comment       0x00000000       0x7f lib/libbootloader.a(boot_fdl_dnld.c.obj)
 .debug_frame   0x00000000      0x114 lib/libbootloader.a(boot_fdl_dnld.c.obj)
 .ARM.attributes
                0x00000000       0x3d lib/libbootloader.a(boot_fdl_dnld.c.obj)
 .text          0x00000000        0x0 lib/libbootloader.a(boot_aes.c.obj)
 .data          0x00000000        0x0 lib/libbootloader.a(boot_aes.c.obj)
 .bss           0x00000000        0x0 lib/libbootloader.a(boot_aes.c.obj)
 .text._addRoundKey
                0x00000000       0x1c lib/libbootloader.a(boot_aes.c.obj)
 .text.aesEncryptObj
                0x00000000      0x394 lib/libbootloader.a(boot_aes.c.obj)
 .rodata.rcon   0x00000000        0xb lib/libbootloader.a(boot_aes.c.obj)
 .rodata.sbox   0x00000000      0x100 lib/libbootloader.a(boot_aes.c.obj)
 .rodata.x2_sbox
                0x00000000      0x100 lib/libbootloader.a(boot_aes.c.obj)
 .rodata.x3_sbox
                0x00000000      0x100 lib/libbootloader.a(boot_aes.c.obj)
 .debug_info    0x00000000      0xd02 lib/libbootloader.a(boot_aes.c.obj)
 .debug_abbrev  0x00000000      0x362 lib/libbootloader.a(boot_aes.c.obj)
 .debug_loc     0x00000000      0x383 lib/libbootloader.a(boot_aes.c.obj)
 .debug_aranges
                0x00000000       0x28 lib/libbootloader.a(boot_aes.c.obj)
 .debug_ranges  0x00000000       0x68 lib/libbootloader.a(boot_aes.c.obj)
 .debug_line    0x00000000      0x267 lib/libbootloader.a(boot_aes.c.obj)
 .debug_str     0x00000000      0x704 lib/libbootloader.a(boot_aes.c.obj)
 .comment       0x00000000       0x7f lib/libbootloader.a(boot_aes.c.obj)
 .debug_frame   0x00000000       0x58 lib/libbootloader.a(boot_aes.c.obj)
 .ARM.attributes
                0x00000000       0x3d lib/libbootloader.a(boot_aes.c.obj)
 .text          0x00000000        0x0 lib/libbootloader.a(boot_vfs.c.obj)
 .data          0x00000000        0x0 lib/libbootloader.a(boot_vfs.c.obj)
 .bss           0x00000000        0x0 lib/libbootloader.a(boot_vfs.c.obj)
 .text.quec_get_boot_fs_type
                0x00000000       0x5c lib/libbootloader.a(boot_vfs.c.obj)
 .text.bootVfsUmount
                0x00000000       0x50 lib/libbootloader.a(boot_vfs.c.obj)
 .text.bootVfsRemount
                0x00000000       0x38 lib/libbootloader.a(boot_vfs.c.obj)
 .text.bootVfsUmountAll
                0x00000000       0x20 lib/libbootloader.a(boot_vfs.c.obj)
 .text.bootVfsWrite
                0x00000000       0x2e lib/libbootloader.a(boot_vfs.c.obj)
 .text.bootVfsRename
                0x00000000       0x3a lib/libbootloader.a(boot_vfs.c.obj)
 .text.bootVfsMkDir
                0x00000000       0x24 lib/libbootloader.a(boot_vfs.c.obj)
 .text.bootVfsRmDir
                0x00000000       0x24 lib/libbootloader.a(boot_vfs.c.obj)
 .text.bootVfsStatVfs
                0x00000000       0x24 lib/libbootloader.a(boot_vfs.c.obj)
 .text.bootVfsFileWrite
                0x00000000       0x2c lib/libbootloader.a(boot_vfs.c.obj)
 .text.bootVfsMkPath
                0x00000000       0x72 lib/libbootloader.a(boot_vfs.c.obj)
 .text.bootVfsRmChildren
                0x00000000       0xd0 lib/libbootloader.a(boot_vfs.c.obj)
 .bss.quec_sdmmc_rw_mount_flag
                0x00000000        0x2 lib/libbootloader.a(boot_vfs.c.obj)
 .bss.quec_spi6_ext_nor_mount_flag
                0x00000000        0x1 lib/libbootloader.a(boot_vfs.c.obj)
 .bss.quec_spi_exnand_nand_mount_flag
                0x00000000        0x1 lib/libbootloader.a(boot_vfs.c.obj)
 .rodata.bootVfsRmChildren.str1.1
                0x00000000        0x2 lib/libbootloader.a(boot_vfs.c.obj)
 .text          0x00000000        0x0 lib/libbootloader.a(boot_irq.c.obj)
 .data          0x00000000        0x0 lib/libbootloader.a(boot_irq.c.obj)
 .bss           0x00000000        0x0 lib/libbootloader.a(boot_irq.c.obj)
 .text.GIC_SetPriority
                0x00000000       0x2e lib/libbootloader.a(boot_irq.c.obj)
 .text.GIC_SetConfiguration.constprop.0
                0x00000000       0x26 lib/libbootloader.a(boot_irq.c.obj)
 .text.bootEnableInterrupt
                0x00000000       0xec lib/libbootloader.a(boot_irq.c.obj)
 .text.bootDisableInterrupt
                0x00000000       0x20 lib/libbootloader.a(boot_irq.c.obj)
 .text.bootEnableIrq
                0x00000000       0x24 lib/libbootloader.a(boot_irq.c.obj)
 .text.bootDisableIrq
                0x00000000       0x1c lib/libbootloader.a(boot_irq.c.obj)
 .text          0x00000000        0x0 lib/libbootloader.a(boot_timer.c.obj)
 .data          0x00000000        0x0 lib/libbootloader.a(boot_timer.c.obj)
 .bss           0x00000000        0x0 lib/libbootloader.a(boot_timer.c.obj)
 .text.bootEnableTimer
                0x00000000       0x34 lib/libbootloader.a(boot_timer.c.obj)
 .text.bootDisableTimer
                0x00000000       0x20 lib/libbootloader.a(boot_timer.c.obj)
 .text          0x00000000        0x0 lib/libbootloader.a(boot_uart.c.obj)
 .data          0x00000000        0x0 lib/libbootloader.a(boot_uart.c.obj)
 .bss           0x00000000        0x0 lib/libbootloader.a(boot_uart.c.obj)
 .text.prvUartBaudSupported
                0x00000000       0x14 lib/libbootloader.a(boot_uart.c.obj)
 .text.prvUartAvail
                0x00000000        0xa lib/libbootloader.a(boot_uart.c.obj)
 .text.prvUartFlush
                0x00000000        0x2 lib/libbootloader.a(boot_uart.c.obj)
 .text.prvUartConnected
                0x00000000        0x4 lib/libbootloader.a(boot_uart.c.obj)
 .text.prvUartDestroy
                0x00000000        0x4 lib/libbootloader.a(boot_uart.c.obj)
 .text.bootUartBaudSupported
                0x00000000       0x14 lib/libbootloader.a(boot_uart.c.obj)
 .text.bootUartSetBaud
                0x00000000       0x2c lib/libbootloader.a(boot_uart.c.obj)
 .text.bootUartOpen
                0x00000000       0x94 lib/libbootloader.a(boot_uart.c.obj)
 .text.prvUartSetBaud
                0x00000000        0x6 lib/libbootloader.a(boot_uart.c.obj)
 .text.bootUartAvail
                0x00000000        0x8 lib/libbootloader.a(boot_uart.c.obj)
 .text.bootUartRead
                0x00000000       0x24 lib/libbootloader.a(boot_uart.c.obj)
 .text.prvUartFlushInput
                0x00000000       0x18 lib/libbootloader.a(boot_uart.c.obj)
 .text.prvUartRead
                0x00000000        0x6 lib/libbootloader.a(boot_uart.c.obj)
 .text.bootUartWrite
                0x00000000       0x2e lib/libbootloader.a(boot_uart.c.obj)
 .text.prvUartWrite
                0x00000000        0x6 lib/libbootloader.a(boot_uart.c.obj)
 .text.fdlOpenUart
                0x00000000       0x7c lib/libbootloader.a(boot_uart.c.obj)
 .data.gBootUarts
                0x00000000       0x18 lib/libbootloader.a(boot_uart.c.obj)
 .debug_info    0x00000000     0x162f lib/libbootloader.a(boot_uart.c.obj)
 .debug_abbrev  0x00000000      0x44c lib/libbootloader.a(boot_uart.c.obj)
 .debug_loc     0x00000000      0x866 lib/libbootloader.a(boot_uart.c.obj)
 .debug_aranges
                0x00000000       0x98 lib/libbootloader.a(boot_uart.c.obj)
 .debug_ranges  0x00000000       0xe8 lib/libbootloader.a(boot_uart.c.obj)
 .debug_line    0x00000000      0x3f2 lib/libbootloader.a(boot_uart.c.obj)
 .debug_str     0x00000000      0xab2 lib/libbootloader.a(boot_uart.c.obj)
 .comment       0x00000000       0x7f lib/libbootloader.a(boot_uart.c.obj)
 .debug_frame   0x00000000      0x150 lib/libbootloader.a(boot_uart.c.obj)
 .ARM.attributes
                0x00000000       0x3d lib/libbootloader.a(boot_uart.c.obj)
 .text          0x00000000        0x0 lib/libbootloader.a(boot_uart_cmn.c.obj)
 .data          0x00000000        0x0 lib/libbootloader.a(boot_uart_cmn.c.obj)
 .bss           0x00000000        0x0 lib/libbootloader.a(boot_uart_cmn.c.obj)
 .text.bootUartWriteAll
                0x00000000       0x2a lib/libbootloader.a(boot_uart_cmn.c.obj)
 .text.prvUartWriteByte
                0x00000000       0x16 lib/libbootloader.a(boot_uart_cmn.c.obj)
 .text.prvUartSendHdlc
                0x00000000       0x32 lib/libbootloader.a(boot_uart_cmn.c.obj)
 .text.bootUartWriteHdlc
                0x00000000       0x2e lib/libbootloader.a(boot_uart_cmn.c.obj)
 .text.bootUartWriteMultiHdlc
                0x00000000       0x3c lib/libbootloader.a(boot_uart_cmn.c.obj)
 .debug_info    0x00000000      0x3c8 lib/libbootloader.a(boot_uart_cmn.c.obj)
 .debug_abbrev  0x00000000      0x1d3 lib/libbootloader.a(boot_uart_cmn.c.obj)
 .debug_loc     0x00000000      0x32f lib/libbootloader.a(boot_uart_cmn.c.obj)
 .debug_aranges
                0x00000000       0x40 lib/libbootloader.a(boot_uart_cmn.c.obj)
 .debug_ranges  0x00000000       0x48 lib/libbootloader.a(boot_uart_cmn.c.obj)
 .debug_line    0x00000000      0x23c lib/libbootloader.a(boot_uart_cmn.c.obj)
 .debug_str     0x00000000      0x2bb lib/libbootloader.a(boot_uart_cmn.c.obj)
 .comment       0x00000000       0x7f lib/libbootloader.a(boot_uart_cmn.c.obj)
 .debug_frame   0x00000000       0xa0 lib/libbootloader.a(boot_uart_cmn.c.obj)
 .ARM.attributes
                0x00000000       0x3d lib/libbootloader.a(boot_uart_cmn.c.obj)
 .text          0x00000000        0x0 lib/libbootloader.a(boot_mmu.c.obj)
 .data          0x00000000        0x0 lib/libbootloader.a(boot_mmu.c.obj)
 .bss           0x00000000        0x0 lib/libbootloader.a(boot_mmu.c.obj)
 .text.bootMmuDisable
                0x00000000       0xd6 lib/libbootloader.a(boot_mmu.c.obj)
 .text          0x00000000        0x0 lib/libbootloader.a(boot_uimage.c.obj)
 .data          0x00000000        0x0 lib/libbootloader.a(boot_uimage.c.obj)
 .bss           0x00000000        0x0 lib/libbootloader.a(boot_uimage.c.obj)
 .text.bootUimageCheck
                0x00000000       0x64 lib/libbootloader.a(boot_uimage.c.obj)
 .text.bootUimageQuickCheck
                0x00000000       0x54 lib/libbootloader.a(boot_uimage.c.obj)
 .text.bootUimageEntry
                0x00000000        0xc lib/libbootloader.a(boot_uimage.c.obj)
 .text.bootUimageSize
                0x00000000        0xe lib/libbootloader.a(boot_uimage.c.obj)
 .debug_info    0x00000000      0xd68 lib/libbootloader.a(boot_uimage.c.obj)
 .debug_abbrev  0x00000000      0x2a0 lib/libbootloader.a(boot_uimage.c.obj)
 .debug_loc     0x00000000      0x23f lib/libbootloader.a(boot_uimage.c.obj)
 .debug_aranges
                0x00000000       0x38 lib/libbootloader.a(boot_uimage.c.obj)
 .debug_ranges  0x00000000       0x28 lib/libbootloader.a(boot_uimage.c.obj)
 .debug_line    0x00000000      0x23a lib/libbootloader.a(boot_uimage.c.obj)
 .debug_str     0x00000000      0x76f lib/libbootloader.a(boot_uimage.c.obj)
 .comment       0x00000000       0x7f lib/libbootloader.a(boot_uimage.c.obj)
 .debug_frame   0x00000000       0x78 lib/libbootloader.a(boot_uimage.c.obj)
 .ARM.attributes
                0x00000000       0x3d lib/libbootloader.a(boot_uimage.c.obj)
 .text          0x00000000        0x0 lib/libbootloader.a(boot_udc.c.obj)
 .data          0x00000000        0x0 lib/libbootloader.a(boot_udc.c.obj)
 .bss           0x00000000        0x0 lib/libbootloader.a(boot_udc.c.obj)
 .text._giveBackComplete.isra.1
                0x00000000       0x1e lib/libbootloader.a(boot_udc.c.obj)
 .text._epXferStart
                0x00000000      0x140 lib/libbootloader.a(boot_udc.c.obj)
 .text._txFifoFlush.isra.4
                0x00000000       0x18 lib/libbootloader.a(boot_udc.c.obj)
 .text._epIsr   0x00000000      0x18c lib/libbootloader.a(boot_udc.c.obj)
 .text._initUdcCommonConfig.constprop.8
                0x00000000       0x78 lib/libbootloader.a(boot_udc.c.obj)
 .text._setHwEpMps.isra.0.constprop.9
                0x00000000       0x2e lib/libbootloader.a(boot_udc.c.obj)
 .text.bootUdcOpen
                0x00000000       0xa0 lib/libbootloader.a(boot_udc.c.obj)
 .text.bootUdcClose
                0x00000000        0x2 lib/libbootloader.a(boot_udc.c.obj)
 .text.bootUdcConnected
                0x00000000       0x18 lib/libbootloader.a(boot_udc.c.obj)
 .text.bootUdcIsrPoll
                0x00000000       0xd4 lib/libbootloader.a(boot_udc.c.obj)
 .text.bootUdcXferEnqueue
                0x00000000       0xa0 lib/libbootloader.a(boot_udc.c.obj)
 .text.bootUdcXferDequeue
                0x00000000      0x100 lib/libbootloader.a(boot_udc.c.obj)
 .text.bootUdcXferAlloc
                0x00000000       0x24 lib/libbootloader.a(boot_udc.c.obj)
 .text.bootUdcXferFree
                0x00000000        0x6 lib/libbootloader.a(boot_udc.c.obj)
 .text.bootUdcRomSerialInEp
                0x00000000        0x6 lib/libbootloader.a(boot_udc.c.obj)
 .text.bootUdcRomSerialOutEp
                0x00000000        0x8 lib/libbootloader.a(boot_udc.c.obj)
 .data.gUdc20   0x00000000      0x210 lib/libbootloader.a(boot_udc.c.obj)
 .rodata._epIsr.str1.1
                0x00000000       0xb7 lib/libbootloader.a(boot_udc.c.obj)
 .rodata._epXferStart.str1.1
                0x00000000       0x1e lib/libbootloader.a(boot_udc.c.obj)
 .rodata.bootUdcIsrPoll.str1.1
                0x00000000       0x2e lib/libbootloader.a(boot_udc.c.obj)
 .rodata.bootUdcXferAlloc.str1.1
                0x00000000       0x1c lib/libbootloader.a(boot_udc.c.obj)
 .rodata.bootUdcXferDequeue.str1.1
                0x00000000       0x63 lib/libbootloader.a(boot_udc.c.obj)
 .rodata.bootUdcXferEnqueue.str1.1
                0x00000000       0x32 lib/libbootloader.a(boot_udc.c.obj)
 .debug_info    0x00000000     0x4099 lib/libbootloader.a(boot_udc.c.obj)
 .debug_abbrev  0x00000000      0x5d0 lib/libbootloader.a(boot_udc.c.obj)
 .debug_loc     0x00000000     0x1037 lib/libbootloader.a(boot_udc.c.obj)
 .debug_aranges
                0x00000000       0x98 lib/libbootloader.a(boot_udc.c.obj)
 .debug_ranges  0x00000000      0x278 lib/libbootloader.a(boot_udc.c.obj)
 .debug_line    0x00000000      0x5ba lib/libbootloader.a(boot_udc.c.obj)
 .debug_str     0x00000000     0x1e10 lib/libbootloader.a(boot_udc.c.obj)
 .comment       0x00000000       0x7f lib/libbootloader.a(boot_udc.c.obj)
 .debug_frame   0x00000000      0x1d0 lib/libbootloader.a(boot_udc.c.obj)
 .ARM.attributes
                0x00000000       0x3d lib/libbootloader.a(boot_udc.c.obj)
 .text          0x00000000        0x0 lib/libbootloader.a(boot_usb_fdl_channel.c.obj)
 .data          0x00000000        0x0 lib/libbootloader.a(boot_usb_fdl_channel.c.obj)
 .bss           0x00000000        0x0 lib/libbootloader.a(boot_usb_fdl_channel.c.obj)
 .text._setBaud
                0x00000000        0x4 lib/libbootloader.a(boot_usb_fdl_channel.c.obj)
 .text._flush   0x00000000        0x2 lib/libbootloader.a(boot_usb_fdl_channel.c.obj)
 .text._connected
                0x00000000        0x6 lib/libbootloader.a(boot_usb_fdl_channel.c.obj)
 .text._txComp  0x00000000       0x24 lib/libbootloader.a(boot_usb_fdl_channel.c.obj)
 .text._destroy
                0x00000000       0x24 lib/libbootloader.a(boot_usb_fdl_channel.c.obj)
 .text._rxComp  0x00000000       0x5c lib/libbootloader.a(boot_usb_fdl_channel.c.obj)
 .text._write   0x00000000       0xb8 lib/libbootloader.a(boot_usb_fdl_channel.c.obj)
 .text._startRx
                0x00000000       0x54 lib/libbootloader.a(boot_usb_fdl_channel.c.obj)
 .text._poll    0x00000000       0x34 lib/libbootloader.a(boot_usb_fdl_channel.c.obj)
 .text._flushInput
                0x00000000       0x14 lib/libbootloader.a(boot_usb_fdl_channel.c.obj)
 .text._read    0x00000000       0x1c lib/libbootloader.a(boot_usb_fdl_channel.c.obj)
 .text._avail   0x00000000       0x10 lib/libbootloader.a(boot_usb_fdl_channel.c.obj)
 .text.fdlOpenUsbSerial
                0x00000000      0x110 lib/libbootloader.a(boot_usb_fdl_channel.c.obj)
 .rodata._poll.str1.1
                0x00000000       0x15 lib/libbootloader.a(boot_usb_fdl_channel.c.obj)
 .rodata._rxComp.str1.1
                0x00000000       0x43 lib/libbootloader.a(boot_usb_fdl_channel.c.obj)
 .rodata._startRx.str1.1
                0x00000000       0x16 lib/libbootloader.a(boot_usb_fdl_channel.c.obj)
 .rodata._txComp.str1.1
                0x00000000       0x19 lib/libbootloader.a(boot_usb_fdl_channel.c.obj)
 .rodata._write.str1.1
                0x00000000       0x39 lib/libbootloader.a(boot_usb_fdl_channel.c.obj)
 .debug_info    0x00000000     0x1708 lib/libbootloader.a(boot_usb_fdl_channel.c.obj)
 .debug_abbrev  0x00000000      0x41e lib/libbootloader.a(boot_usb_fdl_channel.c.obj)
 .debug_loc     0x00000000      0x889 lib/libbootloader.a(boot_usb_fdl_channel.c.obj)
 .debug_aranges
                0x00000000       0x80 lib/libbootloader.a(boot_usb_fdl_channel.c.obj)
 .debug_ranges  0x00000000       0xc8 lib/libbootloader.a(boot_usb_fdl_channel.c.obj)
 .debug_line    0x00000000      0x3c9 lib/libbootloader.a(boot_usb_fdl_channel.c.obj)
 .debug_str     0x00000000      0xa35 lib/libbootloader.a(boot_usb_fdl_channel.c.obj)
 .comment       0x00000000       0x7f lib/libbootloader.a(boot_usb_fdl_channel.c.obj)
 .debug_frame   0x00000000      0x16c lib/libbootloader.a(boot_usb_fdl_channel.c.obj)
 .ARM.attributes
                0x00000000       0x3d lib/libbootloader.a(boot_usb_fdl_channel.c.obj)
 .text          0x00000000        0x0 lib/libbootloader.a(boot_pdl.c.obj)
 .data          0x00000000        0x0 lib/libbootloader.a(boot_pdl.c.obj)
 .bss           0x00000000        0x0 lib/libbootloader.a(boot_pdl.c.obj)
 .text.prvPdlWriteAll.isra.1
                0x00000000       0x1a lib/libbootloader.a(boot_pdl.c.obj)
 .text.pdlEngineSendResp
                0x00000000       0x38 lib/libbootloader.a(boot_pdl.c.obj)
 .text.pdlEngineCreate
                0x00000000       0x10 lib/libbootloader.a(boot_pdl.c.obj)
 .text.pdlEngineDelete
                0x00000000        0x2 lib/libbootloader.a(boot_pdl.c.obj)
 .text.pdlEngineLoop
                0x00000000       0xee lib/libbootloader.a(boot_pdl.c.obj)
 .bss.gPdlEngine
                0x00000000        0x8 lib/libbootloader.a(boot_pdl.c.obj)
 .debug_info    0x00000000     0x1067 lib/libbootloader.a(boot_pdl.c.obj)
 .debug_abbrev  0x00000000      0x3dd lib/libbootloader.a(boot_pdl.c.obj)
 .debug_loc     0x00000000      0x397 lib/libbootloader.a(boot_pdl.c.obj)
 .debug_aranges
                0x00000000       0x40 lib/libbootloader.a(boot_pdl.c.obj)
 .debug_ranges  0x00000000      0x120 lib/libbootloader.a(boot_pdl.c.obj)
 .debug_line    0x00000000      0x2bb lib/libbootloader.a(boot_pdl.c.obj)
 .debug_str     0x00000000      0x8f6 lib/libbootloader.a(boot_pdl.c.obj)
 .comment       0x00000000       0x7f lib/libbootloader.a(boot_pdl.c.obj)
 .debug_frame   0x00000000       0x98 lib/libbootloader.a(boot_pdl.c.obj)
 .ARM.attributes
                0x00000000       0x3d lib/libbootloader.a(boot_pdl.c.obj)
 .text          0x00000000        0x0 lib/libbootloader.a(boot_pdl_uimage.c.obj)
 .data          0x00000000        0x0 lib/libbootloader.a(boot_pdl_uimage.c.obj)
 .bss           0x00000000        0x0 lib/libbootloader.a(boot_pdl_uimage.c.obj)
 .text.prvPdlProcess
                0x00000000       0xb6 lib/libbootloader.a(boot_pdl_uimage.c.obj)
 .text.prvPdlPolling
                0x00000000       0x22 lib/libbootloader.a(boot_pdl_uimage.c.obj)
 .text.pdlDnldUimage
                0x00000000       0x50 lib/libbootloader.a(boot_pdl_uimage.c.obj)
 .debug_info    0x00000000      0xf29 lib/libbootloader.a(boot_pdl_uimage.c.obj)
 .debug_abbrev  0x00000000      0x322 lib/libbootloader.a(boot_pdl_uimage.c.obj)
 .debug_loc     0x00000000      0x41a lib/libbootloader.a(boot_pdl_uimage.c.obj)
 .debug_aranges
                0x00000000       0x30 lib/libbootloader.a(boot_pdl_uimage.c.obj)
 .debug_ranges  0x00000000       0x58 lib/libbootloader.a(boot_pdl_uimage.c.obj)
 .debug_line    0x00000000      0x28e lib/libbootloader.a(boot_pdl_uimage.c.obj)
 .debug_str     0x00000000      0xa7d lib/libbootloader.a(boot_pdl_uimage.c.obj)
 .comment       0x00000000       0x7f lib/libbootloader.a(boot_pdl_uimage.c.obj)
 .debug_frame   0x00000000       0x84 lib/libbootloader.a(boot_pdl_uimage.c.obj)
 .ARM.attributes
                0x00000000       0x3d lib/libbootloader.a(boot_pdl_uimage.c.obj)
 .text          0x00000000        0x0 lib/libbootloader.a(boot_lcd.c.obj)
 .data          0x00000000        0x0 lib/libbootloader.a(boot_lcd.c.obj)
 .bss           0x00000000        0x0 lib/libbootloader.a(boot_lcd.c.obj)
 .text.prvWaitGouda
                0x00000000       0x10 lib/libbootloader.a(boot_lcd.c.obj)
 .text.prvGoudaDeinit
                0x00000000       0x28 lib/libbootloader.a(boot_lcd.c.obj)
 .text.bootLcdGetByname
                0x00000000       0x18 lib/libbootloader.a(boot_lcd.c.obj)
 .text.bootLcdGetPanelInfo
                0x00000000       0x74 lib/libbootloader.a(boot_lcd.c.obj)
 .text.bootLcdOpen
                0x00000000      0x140 lib/libbootloader.a(boot_lcd.c.obj)
 .text.bootLcdClose
                0x00000000       0x2c lib/libbootloader.a(boot_lcd.c.obj)
 .text.bootLcdSetDirection
                0x00000000        0x4 lib/libbootloader.a(boot_lcd.c.obj)
 .text.bootLcdSetBackLightEnable
                0x00000000        0xc lib/libbootloader.a(boot_lcd.c.obj)
 .text.bootLcdWaitTransferDone
                0x00000000        0x4 lib/libbootloader.a(boot_lcd.c.obj)
 .text.bootLcdFlush
                0x00000000      0x358 lib/libbootloader.a(boot_lcd.c.obj)
 .text.bootLcdFill
                0x00000000       0x82 lib/libbootloader.a(boot_lcd.c.obj)
 .text.drvLcdGetDesc
                0x00000000        0x4 lib/libbootloader.a(boot_lcd.c.obj)
 .text.drvLcdWriteCmd
                0x00000000       0x2c lib/libbootloader.a(boot_lcd.c.obj)
 .text.drvLcdWriteData
                0x00000000       0x2c lib/libbootloader.a(boot_lcd.c.obj)
 .text.drvLcdReadData
                0x00000000       0xb4 lib/libbootloader.a(boot_lcd.c.obj)
 .bss.gLcd1     0x00000000       0x14 lib/libbootloader.a(boot_lcd.c.obj)
 .debug_info    0x00000000     0x2972 lib/libbootloader.a(boot_lcd.c.obj)
 .debug_abbrev  0x00000000      0x583 lib/libbootloader.a(boot_lcd.c.obj)
 .debug_loc     0x00000000      0xc03 lib/libbootloader.a(boot_lcd.c.obj)
 .debug_aranges
                0x00000000       0x90 lib/libbootloader.a(boot_lcd.c.obj)
 .debug_ranges  0x00000000      0x298 lib/libbootloader.a(boot_lcd.c.obj)
 .debug_line    0x00000000      0x637 lib/libbootloader.a(boot_lcd.c.obj)
 .debug_str     0x00000000     0x1e73 lib/libbootloader.a(boot_lcd.c.obj)
 .comment       0x00000000       0x7f lib/libbootloader.a(boot_lcd.c.obj)
 .debug_frame   0x00000000      0x18c lib/libbootloader.a(boot_lcd.c.obj)
 .ARM.attributes
                0x00000000       0x3d lib/libbootloader.a(boot_lcd.c.obj)
 .text          0x00000000        0x0 lib/libbootloader.a(boot_unity.c.obj)
 .data          0x00000000        0x0 lib/libbootloader.a(boot_unity.c.obj)
 .bss           0x00000000        0x0 lib/libbootloader.a(boot_unity.c.obj)
 .text.prvFdlIdentity.isra.0
                0x00000000       0x88 lib/libbootloader.a(boot_unity.c.obj)
 .text.bootUnityStart
                0x00000000      0x1ac lib/libbootloader.a(boot_unity.c.obj)
 .text.UnityOutputChar
                0x00000000       0x1c lib/libbootloader.a(boot_unity.c.obj)
 .text.UnityOutputFlush
                0x00000000        0x2 lib/libbootloader.a(boot_unity.c.obj)
 .text.UnityOutputStart
                0x00000000        0x2 lib/libbootloader.a(boot_unity.c.obj)
 .text.UnityOutputComplete
                0x00000000        0x2 lib/libbootloader.a(boot_unity.c.obj)
 .rodata        0x00000000        0x8 lib/libbootloader.a(boot_unity.c.obj)
 .bss.gUnityUart
                0x00000000        0x4 lib/libbootloader.a(boot_unity.c.obj)
 .rodata.bootUnityStart.str1.1
                0x00000000        0xc lib/libbootloader.a(boot_unity.c.obj)
 .rodata.fdl_version_string.47300
                0x00000000       0x22 lib/libbootloader.a(boot_unity.c.obj)
 .rodata.str1.1
                0x00000000        0x4 lib/libbootloader.a(boot_unity.c.obj)
 .debug_info    0x00000000     0x116f lib/libbootloader.a(boot_unity.c.obj)
 .debug_abbrev  0x00000000      0x37f lib/libbootloader.a(boot_unity.c.obj)
 .debug_loc     0x00000000       0xbf lib/libbootloader.a(boot_unity.c.obj)
 .debug_aranges
                0x00000000       0x38 lib/libbootloader.a(boot_unity.c.obj)
 .debug_ranges  0x00000000       0x40 lib/libbootloader.a(boot_unity.c.obj)
 .debug_line    0x00000000      0x35f lib/libbootloader.a(boot_unity.c.obj)
 .debug_str     0x00000000     0x140b lib/libbootloader.a(boot_unity.c.obj)
 .comment       0x00000000       0x7f lib/libbootloader.a(boot_unity.c.obj)
 .debug_frame   0x00000000       0x9c lib/libbootloader.a(boot_unity.c.obj)
 .ARM.attributes
                0x00000000       0x3d lib/libbootloader.a(boot_unity.c.obj)
 .text          0x00000000        0x0 lib/libbootloader.a(boot_override.c.obj)
 .data          0x00000000        0x0 lib/libbootloader.a(boot_override.c.obj)
 .bss           0x00000000        0x0 lib/libbootloader.a(boot_override.c.obj)
 .text.osiSetUpTime
                0x00000000        0x2 lib/libbootloader.a(boot_override.c.obj)
 .text.osiUpTime
                0x00000000        0x6 lib/libbootloader.a(boot_override.c.obj)
 .text.osiEpochSecond
                0x00000000        0x6 lib/libbootloader.a(boot_override.c.obj)
 .text.osiEpochTime
                0x00000000        0x6 lib/libbootloader.a(boot_override.c.obj)
 .text.osiSetEpochTime
                0x00000000        0x4 lib/libbootloader.a(boot_override.c.obj)
 .text.osiUpTimeToEpoch
                0x00000000        0x6 lib/libbootloader.a(boot_override.c.obj)
 .text.osiGetBootCauses
                0x00000000        0xc lib/libbootloader.a(boot_override.c.obj)
 .text.osiSetBootCause
                0x00000000       0x10 lib/libbootloader.a(boot_override.c.obj)
 .text.osiGetBootMode
                0x00000000        0xc lib/libbootloader.a(boot_override.c.obj)
 .text.osiSetBootMode
                0x00000000        0xc lib/libbootloader.a(boot_override.c.obj)
 .text.osiThreadSleep
                0x00000000        0xa lib/libbootloader.a(boot_override.c.obj)
 .text.osiThreadSleepUS
                0x00000000        0x4 lib/libbootloader.a(boot_override.c.obj)
 .text.osiPmSourceCreate
                0x00000000        0x4 lib/libbootloader.a(boot_override.c.obj)
 .bss.gBootCauses
                0x00000000        0x4 lib/libbootloader.a(boot_override.c.obj)
 .bss.gBootMode
                0x00000000        0x2 lib/libbootloader.a(boot_override.c.obj)
 .text          0x00000000        0x0 lib/libbootloader.a(boot_adi_bus.c.obj)
 .data          0x00000000        0x0 lib/libbootloader.a(boot_adi_bus.c.obj)
 .bss           0x00000000        0x0 lib/libbootloader.a(boot_adi_bus.c.obj)
 .text.bootAdiBusBatchChange
                0x00000000       0x3e lib/libbootloader.a(boot_adi_bus.c.obj)
 .text          0x00000000        0x0 lib/libbootloader.a(boot_log.c.obj)
 .data          0x00000000        0x0 lib/libbootloader.a(boot_log.c.obj)
 .bss           0x00000000        0x0 lib/libbootloader.a(boot_log.c.obj)
 .text.osiTraceGsmFrameNumber
                0x00000000       0x10 lib/libbootloader.a(boot_log.c.obj)
 .text.osiTraceLteFrameNumber
                0x00000000        0x4 lib/libbootloader.a(boot_log.c.obj)
 .ramtext.osi_log.624
                0x00000000       0xb0 lib/libbootloader.a(boot_log.c.obj)
 .text.prvTraceEx
                0x00000000       0xa4 lib/libbootloader.a(boot_log.c.obj)
 .text.boot_osiTraceEx
                0x00000000       0x24 lib/libbootloader.a(boot_log.c.obj)
 .text.prvTraIdBasic
                0x00000000       0x88 lib/libbootloader.a(boot_log.c.obj)
 .text.prvTraEx
                0x00000000       0xb8 lib/libbootloader.a(boot_log.c.obj)
 .text.prvTraIdEx
                0x00000000       0xb0 lib/libbootloader.a(boot_log.c.obj)
 .ramtext.osi_log.715
                0x00000000       0x24 lib/libbootloader.a(boot_log.c.obj)
 .ramtext.osi_log.729
                0x00000000       0x40 lib/libbootloader.a(boot_log.c.obj)
 .ramtext.osi_log.745
                0x00000000       0x40 lib/libbootloader.a(boot_log.c.obj)
 .ramtext.osi_log.761
                0x00000000       0x24 lib/libbootloader.a(boot_log.c.obj)
 .ramtext.osi_log.775
                0x00000000       0x40 lib/libbootloader.a(boot_log.c.obj)
 .ramtext.osi_log.791
                0x00000000       0x40 lib/libbootloader.a(boot_log.c.obj)
 .text.boot_osiTraceTraEx
                0x00000000       0x24 lib/libbootloader.a(boot_log.c.obj)
 .text.boot_osiTracePubEx
                0x00000000       0x40 lib/libbootloader.a(boot_log.c.obj)
 .text.boot_osiTraceLteEx
                0x00000000       0x40 lib/libbootloader.a(boot_log.c.obj)
 .text.boot_osiTraceTraIdEx
                0x00000000       0x24 lib/libbootloader.a(boot_log.c.obj)
 .text.boot_osiTracePubIdEx
                0x00000000       0x40 lib/libbootloader.a(boot_log.c.obj)
 .text.boot_osiTraceLteIdEx
                0x00000000       0x40 lib/libbootloader.a(boot_log.c.obj)
 .text.boot_osiTraceSendTraData
                0x00000000       0x84 lib/libbootloader.a(boot_log.c.obj)
 .text.boot_sxs_SetFnStamp
                0x00000000        0xc lib/libbootloader.a(boot_log.c.obj)
 .text.boot_sxs_SetTraceLevel
                0x00000000       0x14 lib/libbootloader.a(boot_log.c.obj)
 .text.boot_osiTraceRawSend
                0x00000000       0x5c lib/libbootloader.a(boot_log.c.obj)
 .text.boot_SCI_TraceCapData
                0x00000000        0xc lib/libbootloader.a(boot_log.c.obj)
 .text          0x00000000        0x0 lib/libhal.a(hal_clock_init.c.obj)
 .data          0x00000000        0x0 lib/libhal.a(hal_clock_init.c.obj)
 .bss           0x00000000        0x0 lib/libhal.a(hal_clock_init.c.obj)
 .text.halRamWakeInit
                0x00000000       0x80 lib/libhal.a(hal_clock_init.c.obj)
 .text.halRamSuspend
                0x00000000        0x2 lib/libhal.a(hal_clock_init.c.obj)
 .text.halRamSuspendAbort
                0x00000000        0x2 lib/libhal.a(hal_clock_init.c.obj)
 .text          0x00000000        0x0 lib/libhal.a(hal_chip_8910.c.obj)
 .data          0x00000000        0x0 lib/libhal.a(hal_chip_8910.c.obj)
 .bss           0x00000000        0x0 lib/libhal.a(hal_chip_8910.c.obj)
 .text.halGetChipId
                0x00000000       0x24 lib/libhal.a(hal_chip_8910.c.obj)
 .text.halGetMetalId
                0x00000000       0x10 lib/libhal.a(hal_chip_8910.c.obj)
 .text.halChangeSysClk
                0x00000000        0x2 lib/libhal.a(hal_chip_8910.c.obj)
 .text.osiDCacheCleanInvalidate
                0x00000000       0x1c lib/libhal.a(hal_chip_8910.c.obj)
 .text.osiICacheInvalidate
                0x00000000       0x10 lib/libhal.a(hal_chip_8910.c.obj)
 .text.osiICacheSync
                0x00000000        0xc lib/libhal.a(hal_chip_8910.c.obj)
 .text.osiDCacheCleanAll
                0x00000000       0xac lib/libhal.a(hal_chip_8910.c.obj)
 .text.osiDCacheInvalidateAll
                0x00000000       0xac lib/libhal.a(hal_chip_8910.c.obj)
 .text.osiICacheInvalidateAll
                0x00000000       0x10 lib/libhal.a(hal_chip_8910.c.obj)
 .text.osiICacheSyncAll
                0x00000000       0xb2 lib/libhal.a(hal_chip_8910.c.obj)
 .text.halClock26MRequest
                0x00000000       0x78 lib/libhal.a(hal_chip_8910.c.obj)
 .text.halClock26MRelease
                0x00000000       0x94 lib/libhal.a(hal_chip_8910.c.obj)
 .text.halCameraClockRequest
                0x00000000      0x110 lib/libhal.a(hal_chip_8910.c.obj)
 .text.halCameraClockRelease
                0x00000000       0x4c lib/libhal.a(hal_chip_8910.c.obj)
 .bss.gCameraClkFlag
                0x00000000        0x1 lib/libhal.a(hal_chip_8910.c.obj)
 .bss.gClock26MUseMap
                0x00000000        0x4 lib/libhal.a(hal_chip_8910.c.obj)
 .rodata.halCameraClockRelease.str1.1
                0x00000000       0x29 lib/libhal.a(hal_chip_8910.c.obj)
 .rodata.halCameraClockRequest.str1.1
                0x00000000       0x5d lib/libhal.a(hal_chip_8910.c.obj)
 .text          0x00000000        0x0 lib/libhal.a(hal_pmu_8910.c.obj)
 .data          0x00000000        0x0 lib/libhal.a(hal_pmu_8910.c.obj)
 .bss           0x00000000        0x0 lib/libhal.a(hal_pmu_8910.c.obj)
 .text.halPmuReadPsmInitCnt
                0x00000000       0x40 lib/libhal.a(hal_pmu_8910.c.obj)
 .text.halPmuRtcReadSecond
                0x00000000       0x7c lib/libhal.a(hal_pmu_8910.c.obj)
 .text.halPmuCheckPsm
                0x00000000       0xfc lib/libhal.a(hal_pmu_8910.c.obj)
 .text.halBootCauseMode
                0x00000000      0x188 lib/libhal.a(hal_pmu_8910.c.obj)
 .text.halWatchdogReset
                0x00000000       0x50 lib/libhal.a(hal_pmu_8910.c.obj)
 .text.halPmuEnterPm1
                0x00000000        0x2 lib/libhal.a(hal_pmu_8910.c.obj)
 .text.halPmuAbortPm1
                0x00000000        0x2 lib/libhal.a(hal_pmu_8910.c.obj)
 .text.halPmuExitPm1
                0x00000000        0x2 lib/libhal.a(hal_pmu_8910.c.obj)
 .text.halPmuEnterPm2
                0x00000000        0x2 lib/libhal.a(hal_pmu_8910.c.obj)
 .text.halPmuAbortPm2
                0x00000000        0x2 lib/libhal.a(hal_pmu_8910.c.obj)
 .text.halPmuExitPm2
                0x00000000        0x2 lib/libhal.a(hal_pmu_8910.c.obj)
 .text.halPmuUnlockPowerReg
                0x00000000       0x20 lib/libhal.a(hal_pmu_8910.c.obj)
 .text.halPmuUnlockPsmReg
                0x00000000       0x20 lib/libhal.a(hal_pmu_8910.c.obj)
 .text.halPmuSwitchPower
                0x00000000      0x3e4 lib/libhal.a(hal_pmu_8910.c.obj)
 .text.halPmuSet7sReset
                0x00000000       0x14 lib/libhal.a(hal_pmu_8910.c.obj)
 .text.halPmuSetCamFlashLevel
                0x00000000       0x20 lib/libhal.a(hal_pmu_8910.c.obj)
 .text.halPmuSetPowerLevel
                0x00000000      0x174 lib/libhal.a(hal_pmu_8910.c.obj)
 .text.halPmuInit
                0x00000000      0x1b0 lib/libhal.a(hal_pmu_8910.c.obj)
 .text.halPmuPsmPrepare
                0x00000000      0x15c lib/libhal.a(hal_pmu_8910.c.obj)
 .text.halShutdown
                0x00000000      0x1e8 lib/libhal.a(hal_pmu_8910.c.obj)
 .rodata.halBootCauseMode.str1.1
                0x00000000       0x91 lib/libhal.a(hal_pmu_8910.c.obj)
 .rodata.halPmuCheckPsm.str1.1
                0x00000000       0x27 lib/libhal.a(hal_pmu_8910.c.obj)
 .rodata.halPmuSetPowerLevel.str1.1
                0x00000000       0x34 lib/libhal.a(hal_pmu_8910.c.obj)
 .rodata.halShutdown.str1.1
                0x00000000       0x32 lib/libhal.a(hal_pmu_8910.c.obj)
 .rodata.pmic_power_level_table
                0x00000000       0xa0 lib/libhal.a(hal_pmu_8910.c.obj)
 .text          0x00000000        0x0 lib/libhal.a(hal_efuse_8910.c.obj)
 .data          0x00000000        0x0 lib/libhal.a(hal_efuse_8910.c.obj)
 .bss           0x00000000        0x0 lib/libhal.a(hal_efuse_8910.c.obj)
 .text.prvEfuseWrite
                0x00000000       0x64 lib/libhal.a(hal_efuse_8910.c.obj)
 .text.halEfuseWrite
                0x00000000       0x20 lib/libhal.a(hal_efuse_8910.c.obj)
 .text.halEfuseDoubleWrite
                0x00000000       0x20 lib/libhal.a(hal_efuse_8910.c.obj)
 .text.halEfuseRead
                0x00000000       0x3c lib/libhal.a(hal_efuse_8910.c.obj)
 .text          0x00000000        0x0 lib/libhal.a(hal_delay.c.obj)
 .data          0x00000000        0x0 lib/libhal.a(hal_delay.c.obj)
 .bss           0x00000000        0x0 lib/libhal.a(hal_delay.c.obj)
 .text          0x00000000        0x0 lib/libhal.a(hal_reg_apply.c.obj)
 .data          0x00000000        0x0 lib/libhal.a(hal_reg_apply.c.obj)
 .bss           0x00000000        0x0 lib/libhal.a(hal_reg_apply.c.obj)
 .text          0x00000000        0x0 lib/libhal.a(hal_chip.c.obj)
 .data          0x00000000        0x0 lib/libhal.a(hal_chip.c.obj)
 .bss           0x00000000        0x0 lib/libhal.a(hal_chip.c.obj)
 .text.halCalcDivider24
                0x00000000       0x92 lib/libhal.a(hal_chip.c.obj)
 .text.halDivider24OutFreq
                0x00000000       0x16 lib/libhal.a(hal_chip.c.obj)
 .text.halCalcDivider20
                0x00000000       0x88 lib/libhal.a(hal_chip.c.obj)
 .text.halDivider20OutFreq
                0x00000000       0x14 lib/libhal.a(hal_chip.c.obj)
 .text.halCalHalfDivider
                0x00000000       0x86 lib/libhal.a(hal_chip.c.obj)
 .text.halHalfDividerOutFreq
                0x00000000       0x18 lib/libhal.a(hal_chip.c.obj)
 .rodata.gHalfDividerDiv
                0x00000000       0x10 lib/libhal.a(hal_chip.c.obj)
 .debug_info    0x00000000      0x3fa lib/libhal.a(hal_chip.c.obj)
 .debug_abbrev  0x00000000      0x102 lib/libhal.a(hal_chip.c.obj)
 .debug_loc     0x00000000      0x493 lib/libhal.a(hal_chip.c.obj)
 .debug_aranges
                0x00000000       0x48 lib/libhal.a(hal_chip.c.obj)
 .debug_ranges  0x00000000       0x88 lib/libhal.a(hal_chip.c.obj)
 .debug_line    0x00000000      0x1b6 lib/libhal.a(hal_chip.c.obj)
 .debug_str     0x00000000      0x3e7 lib/libhal.a(hal_chip.c.obj)
 .comment       0x00000000       0x7f lib/libhal.a(hal_chip.c.obj)
 .debug_frame   0x00000000       0xf4 lib/libhal.a(hal_chip.c.obj)
 .ARM.attributes
                0x00000000       0x3d lib/libhal.a(hal_chip.c.obj)
 .text          0x00000000        0x0 lib/libhal.a(hal_chip_armv7a.c.obj)
 .data          0x00000000        0x0 lib/libhal.a(hal_chip_armv7a.c.obj)
 .bss           0x00000000        0x0 lib/libhal.a(hal_chip_armv7a.c.obj)
 .text          0x00000000        0x0 lib/libhal.a(hal_hwspinlock.c.obj)
 .data          0x00000000        0x0 lib/libhal.a(hal_hwspinlock.c.obj)
 .bss           0x00000000        0x0 lib/libhal.a(hal_hwspinlock.c.obj)
 .text.halHwspinlockTryAcquireInCritical
                0x00000000       0x14 lib/libhal.a(hal_hwspinlock.c.obj)
 .text.halHwspinlockAcquireInCritical
                0x00000000       0x30 lib/libhal.a(hal_hwspinlock.c.obj)
 .text          0x00000000        0x0 lib/libhal.a(hal_spi_flash.c.obj)
 .data          0x00000000        0x0 lib/libhal.a(hal_spi_flash.c.obj)
 .bss           0x00000000        0x0 lib/libhal.a(hal_spi_flash.c.obj)
 .text.halSpiFlashWpRange
                0x00000000       0xc4 lib/libhal.a(hal_spi_flash.c.obj)
 .ramtext.flashhal.520
                0x00000000        0xa lib/libhal.a(hal_spi_flash.c.obj)
 .ramtext.flashhal.528
                0x00000000        0xa lib/libhal.a(hal_spi_flash.c.obj)
 .ramtext.flashhal.536
                0x00000000        0xa lib/libhal.a(hal_spi_flash.c.obj)
 .ramtext.flashhal.544
                0x00000000        0xa lib/libhal.a(hal_spi_flash.c.obj)
 .ramtext.flashhal.552
                0x00000000        0xa lib/libhal.a(hal_spi_flash.c.obj)
 .ramtext.flashhal.563
                0x00000000        0xa lib/libhal.a(hal_spi_flash.c.obj)
 .ramtext.flashhal.571
                0x00000000       0x16 lib/libhal.a(hal_spi_flash.c.obj)
 .ramtext.flashhal.790
                0x00000000       0x74 lib/libhal.a(hal_spi_flash.c.obj)
 .ramtext.flashhal.726
                0x00000000       0xb2 lib/libhal.a(hal_spi_flash.c.obj)
 .ramtext.flashhal.976
                0x00000000       0x3c lib/libhal.a(hal_spi_flash.c.obj)
 .ramtext.flashhal.960
                0x00000000       0x48 lib/libhal.a(hal_spi_flash.c.obj)
 .ramtext.flashhal.920
                0x00000000       0x7c lib/libhal.a(hal_spi_flash.c.obj)
 .text.halSpiFlashCmdDualTx
                0x00000000      0x104 lib/libhal.a(hal_spi_flash.c.obj)
 .ramtext.flashhal.758
                0x00000000       0x98 lib/libhal.a(hal_spi_flash.c.obj)
 .ramtext.flashhal.880
                0x00000000       0x6e lib/libhal.a(hal_spi_flash.c.obj)
 .ramtext.flashhal.819
                0x00000000       0x9a lib/libhal.a(hal_spi_flash.c.obj)
 .ramtext.flashhal.850
                0x00000000       0x9e lib/libhal.a(hal_spi_flash.c.obj)
 .ramtext.flashhal.1413
                0x00000000       0x66 lib/libhal.a(hal_spi_flash.c.obj)
 .text          0x00000000        0x0 lib/libhal.a(hal_gpio.c.obj)
 .data          0x00000000        0x0 lib/libhal.a(hal_gpio.c.obj)
 .bss           0x00000000        0x0 lib/libhal.a(hal_gpio.c.obj)
 .text.halGpioSetInput
                0x00000000       0x1c lib/libhal.a(hal_gpio.c.obj)
 .text.halGpioGetValue
                0x00000000       0x20 lib/libhal.a(hal_gpio.c.obj)
 .text.halGpioSetOutput
                0x00000000       0x24 lib/libhal.a(hal_gpio.c.obj)
 .text.halGpoSetOutput
                0x00000000       0x24 lib/libhal.a(hal_gpio.c.obj)
 .text.halPmicGpioSetInput
                0x00000000        0x4 lib/libhal.a(hal_gpio.c.obj)
 .text.halPmicGpioGetValue
                0x00000000        0x4 lib/libhal.a(hal_gpio.c.obj)
 .text.halPmicGpioSetOutput
                0x00000000        0x4 lib/libhal.a(hal_gpio.c.obj)
 .debug_info    0x00000000      0x2e3 lib/libhal.a(hal_gpio.c.obj)
 .debug_abbrev  0x00000000       0xf1 lib/libhal.a(hal_gpio.c.obj)
 .debug_loc     0x00000000      0x156 lib/libhal.a(hal_gpio.c.obj)
 .debug_aranges
                0x00000000       0x48 lib/libhal.a(hal_gpio.c.obj)
 .debug_ranges  0x00000000       0x38 lib/libhal.a(hal_gpio.c.obj)
 .debug_line    0x00000000      0x168 lib/libhal.a(hal_gpio.c.obj)
 .debug_str     0x00000000      0x3b9 lib/libhal.a(hal_gpio.c.obj)
 .comment       0x00000000       0x7f lib/libhal.a(hal_gpio.c.obj)
 .debug_frame   0x00000000       0x80 lib/libhal.a(hal_gpio.c.obj)
 .ARM.attributes
                0x00000000       0x3d lib/libhal.a(hal_gpio.c.obj)
 .text          0x00000000        0x0 lib/libosi_lib.a(osi_fifo.c.obj)
 .data          0x00000000        0x0 lib/libosi_lib.a(osi_fifo.c.obj)
 .bss           0x00000000        0x0 lib/libosi_lib.a(osi_fifo.c.obj)
 .text._peekInternal
                0x00000000       0x40 lib/libosi_lib.a(osi_fifo.c.obj)
 .text.osiFifoInit
                0x00000000       0x1c lib/libosi_lib.a(osi_fifo.c.obj)
 .text.osiFifoPut
                0x00000000       0x68 lib/libosi_lib.a(osi_fifo.c.obj)
 .text.osiFifoSkipBytes
                0x00000000       0x28 lib/libosi_lib.a(osi_fifo.c.obj)
 .text.osiFifoGet
                0x00000000       0x38 lib/libosi_lib.a(osi_fifo.c.obj)
 .text.osiFifoPeek
                0x00000000       0x32 lib/libosi_lib.a(osi_fifo.c.obj)
 .text.osiFifoReset
                0x00000000       0x1a lib/libosi_lib.a(osi_fifo.c.obj)
 .text.osiFifoSearch
                0x00000000       0x52 lib/libosi_lib.a(osi_fifo.c.obj)
 .debug_info    0x00000000      0xe25 lib/libosi_lib.a(osi_fifo.c.obj)
 .debug_abbrev  0x00000000      0x332 lib/libosi_lib.a(osi_fifo.c.obj)
 .debug_loc     0x00000000      0x5f9 lib/libosi_lib.a(osi_fifo.c.obj)
 .debug_aranges
                0x00000000       0x58 lib/libosi_lib.a(osi_fifo.c.obj)
 .debug_ranges  0x00000000       0xb8 lib/libosi_lib.a(osi_fifo.c.obj)
 .debug_line    0x00000000      0x31c lib/libosi_lib.a(osi_fifo.c.obj)
 .debug_str     0x00000000      0x702 lib/libosi_lib.a(osi_fifo.c.obj)
 .comment       0x00000000       0x7f lib/libosi_lib.a(osi_fifo.c.obj)
 .debug_frame   0x00000000      0x10c lib/libosi_lib.a(osi_fifo.c.obj)
 .ARM.attributes
                0x00000000       0x3d lib/libosi_lib.a(osi_fifo.c.obj)
 .text          0x00000000        0x0 lib/libfupdate_core.a(fupdate_bootloader.c.obj)
 .data          0x00000000        0x0 lib/libfupdate_core.a(fupdate_bootloader.c.obj)
 .bss           0x00000000        0x0 lib/libfupdate_core.a(fupdate_bootloader.c.obj)
 .text.fupdateRun
                0x00000000        0x8 lib/libfupdate_core.a(fupdate_bootloader.c.obj)
 .text          0x00000000        0x0 lib/libfupdate_core.a(fupdate_common.c.obj)
 .data          0x00000000        0x0 lib/libfupdate_core.a(fupdate_common.c.obj)
 .bss           0x00000000        0x0 lib/libfupdate_core.a(fupdate_common.c.obj)
 .text.fupdateCheckFlashCrc
                0x00000000       0x2a lib/libfupdate_core.a(fupdate_common.c.obj)
 .text          0x00000000        0x0 lib/libfsmount.a(fs_mount.c.obj)
 .data          0x00000000        0x0 lib/libfsmount.a(fs_mount.c.obj)
 .bss           0x00000000        0x0 lib/libfsmount.a(fs_mount.c.obj)
 .text.fsGetBlockDeviceNames
                0x00000000       0x1c lib/libfsmount.a(fs_mount.c.obj)
 .text.prvDescSize
                0x00000000       0x38 lib/libfsmount.a(fs_mount.c.obj)
 .text.prvFindSffsDescByMount
                0x00000000       0x4c lib/libfsmount.a(fs_mount.c.obj)
 .text.prvFindFbdevDescByName
                0x00000000       0x3c lib/libfsmount.a(fs_mount.c.obj)
 .text.prvFindSffsDescByDeviceName
                0x00000000       0x3c lib/libfsmount.a(fs_mount.c.obj)
 .text.fsMountFormat
                0x00000000       0x44 lib/libfsmount.a(fs_mount.c.obj)
 .text.fsMountFsPath
                0x00000000       0x58 lib/libfsmount.a(fs_mount.c.obj)
 .text.ql_get_bdev_total_size
                0x00000000       0x28 lib/libfsmount.a(fs_mount.c.obj)
 .text.fsMountFormatFlash
                0x00000000      0x14c lib/libfsmount.a(fs_mount.c.obj)
 .text.fsMountWithFormatAll
                0x00000000      0x144 lib/libfsmount.a(fs_mount.c.obj)
 .text.fsUmountAll
                0x00000000       0x24 lib/libfsmount.a(fs_mount.c.obj)
 .text.fsRemountFactory
                0x00000000       0x30 lib/libfsmount.a(fs_mount.c.obj)
 .rodata.fsRemountFactory.str1.1
                0x00000000        0x9 lib/libfsmount.a(fs_mount.c.obj)
 .text          0x00000000        0x0 lib/libsffs_core.a(sffs.c.obj)
 .data          0x00000000        0x0 lib/libsffs_core.a(sffs.c.obj)
 .bss           0x00000000        0x0 lib/libsffs_core.a(sffs.c.obj)
 .text._cacheSetDirtySeq.isra.15
                0x00000000       0x2a lib/libsffs_core.a(sffs.c.obj)
 .text._fileWrite
                0x00000000      0x3ac lib/libsffs_core.a(sffs.c.obj)
 .text.prvIsRootDirEmpty
                0x00000000       0x42 lib/libsffs_core.a(sffs.c.obj)
 .text.sffsRemount
                0x00000000       0x1c lib/libsffs_core.a(sffs.c.obj)
 .text.sffsWrite
                0x00000000       0x6a lib/libsffs_core.a(sffs.c.obj)
 .text.sffsFileWrite
                0x00000000      0x16c lib/libsffs_core.a(sffs.c.obj)
 .text.sffsFtruncate
                0x00000000       0xc4 lib/libsffs_core.a(sffs.c.obj)
 .text.sffsRmDir
                0x00000000       0xd8 lib/libsffs_core.a(sffs.c.obj)
 .text.sffsRename
                0x00000000      0x2ec lib/libsffs_core.a(sffs.c.obj)
 .text.sffsOpenDir
                0x00000000       0x7a lib/libsffs_core.a(sffs.c.obj)
 .text.sffsCloseDir
                0x00000000       0x3a lib/libsffs_core.a(sffs.c.obj)
 .text.sffsReadDirR
                0x00000000      0x11c lib/libsffs_core.a(sffs.c.obj)
 .text.sffsReadDir
                0x00000000       0x20 lib/libsffs_core.a(sffs.c.obj)
 .text.sffsTellDir
                0x00000000        0xe lib/libsffs_core.a(sffs.c.obj)
 .text.sffsSeekDir
                0x00000000       0x38 lib/libsffs_core.a(sffs.c.obj)
 .text.sffsStatVfs
                0x00000000       0x42 lib/libsffs_core.a(sffs.c.obj)
 .text.sffsSync
                0x00000000       0x22 lib/libsffs_core.a(sffs.c.obj)
 .rodata.sffsFileWrite.str1.1
                0x00000000       0x24 lib/libsffs_core.a(sffs.c.obj)
 .text          0x00000000        0x0 lib/libsffs_core.a(lzmar.c.obj)
 .data          0x00000000        0x0 lib/libsffs_core.a(lzmar.c.obj)
 .bss           0x00000000        0x0 lib/libsffs_core.a(lzmar.c.obj)
 .text.lzmarDataSize
                0x00000000       0x1c lib/libsffs_core.a(lzmar.c.obj)
 .text.lzmarDecompress
                0x00000000      0x104 lib/libsffs_core.a(lzmar.c.obj)
 .text.lzmarCompress4Pieces
                0x00000000       0xa0 lib/libsffs_core.a(lzmar.c.obj)
 .text          0x00000000        0x0 lib/libsffs_core.a(LzmaEnc.c.obj)
 .data          0x00000000        0x0 lib/libsffs_core.a(LzmaEnc.c.obj)
 .bss           0x00000000        0x0 lib/libsffs_core.a(LzmaEnc.c.obj)
 .text.LzmaEncProps_GetDictSize
                0x00000000       0x24 lib/libsffs_core.a(LzmaEnc.c.obj)
 .text.LzmaEnc_SaveState
                0x00000000      0x106 lib/libsffs_core.a(LzmaEnc.c.obj)
 .text.LzmaEnc_RestoreState
                0x00000000      0x10a lib/libsffs_core.a(LzmaEnc.c.obj)
 .text.LzmaEnc_PrepareForLzma2
                0x00000000       0x1c lib/libsffs_core.a(LzmaEnc.c.obj)
 .text.LzmaEnc_MemPrepare
                0x00000000       0x20 lib/libsffs_core.a(LzmaEnc.c.obj)
 .text.LzmaEnc_Finish
                0x00000000        0x2 lib/libsffs_core.a(LzmaEnc.c.obj)
 .text.LzmaEnc_GetNumAvailableBytes
                0x00000000        0x6 lib/libsffs_core.a(LzmaEnc.c.obj)
 .text.LzmaEnc_GetCurBuf
                0x00000000       0x16 lib/libsffs_core.a(LzmaEnc.c.obj)
 .text.LzmaEnc_CodeOneMemBlock
                0x00000000       0x9c lib/libsffs_core.a(LzmaEnc.c.obj)
 .text.LzmaEnc_Encode
                0x00000000       0x30 lib/libsffs_core.a(LzmaEnc.c.obj)
 .text          0x00000000        0x0 lib/libsffs_core.a(LzmaDec.c.obj)
 .data          0x00000000        0x0 lib/libsffs_core.a(LzmaDec.c.obj)
 .bss           0x00000000        0x0 lib/libsffs_core.a(LzmaDec.c.obj)
 .text.LzmaDec_WriteRem
                0x00000000       0x68 lib/libsffs_core.a(LzmaDec.c.obj)
 .text.LzmaDec_DecodeReal2
                0x00000000      0xa42 lib/libsffs_core.a(LzmaDec.c.obj)
 .text.LzmaDec_TryDummy
                0x00000000      0x3fc lib/libsffs_core.a(LzmaDec.c.obj)
 .text.get_bit  0x00000000       0x54 lib/libsffs_core.a(LzmaDec.c.obj)
 .text.LzmaDec_InitDicAndState
                0x00000000       0x1c lib/libsffs_core.a(LzmaDec.c.obj)
 .text.LzmaDec_Init
                0x00000000       0x14 lib/libsffs_core.a(LzmaDec.c.obj)
 .text.LzmaDec_DecodeToDic
                0x00000000      0x220 lib/libsffs_core.a(LzmaDec.c.obj)
 .text.LzmaDec_DecodeToBuf
                0x00000000       0xa4 lib/libsffs_core.a(LzmaDec.c.obj)
 .text.LzmaDec_FreeProbs
                0x00000000       0x12 lib/libsffs_core.a(LzmaDec.c.obj)
 .text.LzmaDec_AllocateProbs2
                0x00000000       0x3e lib/libsffs_core.a(LzmaDec.c.obj)
 .text.LzmaDec_Free
                0x00000000       0x18 lib/libsffs_core.a(LzmaDec.c.obj)
 .text.LzmaProps_Decode
                0x00000000       0x68 lib/libsffs_core.a(LzmaDec.c.obj)
 .text.LzmaDec_AllocateProbs
                0x00000000       0x30 lib/libsffs_core.a(LzmaDec.c.obj)
 .text.LzmaDec_Allocate
                0x00000000       0x5c lib/libsffs_core.a(LzmaDec.c.obj)
 .text.LzmaDecode
                0x00000000       0x82 lib/libsffs_core.a(LzmaDec.c.obj)
 .text.LzmaDec_Init2
                0x00000000       0xcc lib/libsffs_core.a(LzmaDec.c.obj)
 .text.LzmaDecode2
                0x00000000      0x454 lib/libsffs_core.a(LzmaDec.c.obj)
 .bss.distance_max
                0x00000000        0x4 lib/libsffs_core.a(LzmaDec.c.obj)
 .bss.global_range_cnt
                0x00000000        0x4 lib/libsffs_core.a(LzmaDec.c.obj)
 .bss.global_symbol_cnt
                0x00000000        0x4 lib/libsffs_core.a(LzmaDec.c.obj)
 .bss.len_max   0x00000000        0x4 lib/libsffs_core.a(LzmaDec.c.obj)
 .bss.stat1     0x00000000       0x78 lib/libsffs_core.a(LzmaDec.c.obj)
 .bss.symbol_buf
                0x00000000        0x4 lib/libsffs_core.a(LzmaDec.c.obj)
 .debug_info    0x00000000     0x2623 lib/libsffs_core.a(LzmaDec.c.obj)
 .debug_abbrev  0x00000000      0x4c0 lib/libsffs_core.a(LzmaDec.c.obj)
 .debug_loc     0x00000000     0x415b lib/libsffs_core.a(LzmaDec.c.obj)
 .debug_aranges
                0x00000000       0xa0 lib/libsffs_core.a(LzmaDec.c.obj)
 .debug_ranges  0x00000000      0x608 lib/libsffs_core.a(LzmaDec.c.obj)
 .debug_line    0x00000000      0x969 lib/libsffs_core.a(LzmaDec.c.obj)
 .debug_str     0x00000000      0xbcb lib/libsffs_core.a(LzmaDec.c.obj)
 .comment       0x00000000       0x7f lib/libsffs_core.a(LzmaDec.c.obj)
 .debug_frame   0x00000000      0x264 lib/libsffs_core.a(LzmaDec.c.obj)
 .ARM.attributes
                0x00000000       0x3d lib/libsffs_core.a(LzmaDec.c.obj)
 .text          0x00000000        0x0 lib/libsffs_core.a(LzFind.c.obj)
 .data          0x00000000        0x0 lib/libsffs_core.a(LzFind.c.obj)
 .bss           0x00000000        0x0 lib/libsffs_core.a(LzFind.c.obj)
 .text.MatchFinder_ReadIfRequired
                0x00000000       0x16 lib/libsffs_core.a(LzFind.c.obj)
 .text.Bt3Zip_MatchFinder_GetMatches
                0x00000000       0x7e lib/libsffs_core.a(LzFind.c.obj)
 .text.Hc3Zip_MatchFinder_GetMatches
                0x00000000       0x7e lib/libsffs_core.a(LzFind.c.obj)
 .text.Bt3Zip_MatchFinder_Skip
                0x00000000       0x72 lib/libsffs_core.a(LzFind.c.obj)
 .text.Hc3Zip_MatchFinder_Skip
                0x00000000       0x60 lib/libsffs_core.a(LzFind.c.obj)
 .text          0x00000000        0x0 lib/libbdev.a(block_device.c.obj)
 .data          0x00000000        0x0 lib/libbdev.a(block_device.c.obj)
 .bss           0x00000000        0x0 lib/libbdev.a(block_device.c.obj)
 .text.blockDeviceStat
                0x00000000        0x8 lib/libbdev.a(block_device.c.obj)
 .text          0x00000000        0x0 lib/libbdev.a(partition_block_device.c.obj)
 .data          0x00000000        0x0 lib/libbdev.a(partition_block_device.c.obj)
 .bss           0x00000000        0x0 lib/libbdev.a(partition_block_device.c.obj)
 .text          0x00000000        0x0 lib/libbdev_core.a(flash_block_device_v2.c.obj)
 .data          0x00000000        0x0 lib/libbdev_core.a(flash_block_device_v2.c.obj)
 .bss           0x00000000        0x0 lib/libbdev_core.a(flash_block_device_v2.c.obj)
 .text          0x00000000        0x0 lib/libboot_ex_ql.a(quec_boot_fota.c.obj)
 .data          0x00000000        0x0 lib/libboot_ex_ql.a(quec_boot_fota.c.obj)
 .bss           0x00000000        0x0 lib/libboot_ex_ql.a(quec_boot_fota.c.obj)
 .text.quec_boot_get_fota_storage_size
                0x00000000      0x2c4 lib/libboot_ex_ql.a(quec_boot_fota.c.obj)
 .text.ql_boot_get_fs_size
                0x00000000       0x54 lib/libboot_ex_ql.a(quec_boot_fota.c.obj)
 .text.quec_boot_check_fota_storage_size
                0x00000000      0x128 lib/libboot_ex_ql.a(quec_boot_fota.c.obj)
 .rodata.ql_boot_get_fs_size.str1.1
                0x00000000        0xb lib/libboot_ex_ql.a(quec_boot_fota.c.obj)
 .rodata.quec_boot_check_fota_storage_size.str1.1
                0x00000000       0x36 lib/libboot_ex_ql.a(quec_boot_fota.c.obj)
 .rodata.quec_boot_get_fota_storage_size.str1.1
                0x00000000       0x27 lib/libboot_ex_ql.a(quec_boot_fota.c.obj)
 .text          0x00000000        0x0 lib/libhal.a(hal_lzma.c.obj)
 .data          0x00000000        0x0 lib/libhal.a(hal_lzma.c.obj)
 .bss           0x00000000        0x0 lib/libhal.a(hal_lzma.c.obj)
 .text.halLzmaMaxBlockStreamSize
                0x00000000       0x18 lib/libhal.a(hal_lzma.c.obj)
 .text          0x00000000        0x0 ../../components/newlib/armca5/libc.a(lib_a-memcmp.o)
 .data          0x00000000        0x0 ../../components/newlib/armca5/libc.a(lib_a-memcmp.o)
 .bss           0x00000000        0x0 ../../components/newlib/armca5/libc.a(lib_a-memcmp.o)
 .text          0x00000000        0x0 ../../components/newlib/armca5/libc.a(lib_a-memcpy-stub.o)
 .data          0x00000000        0x0 ../../components/newlib/armca5/libc.a(lib_a-memcpy-stub.o)
 .bss           0x00000000        0x0 ../../components/newlib/armca5/libc.a(lib_a-memcpy-stub.o)
 .text          0x00000000        0x0 ../../components/newlib/armca5/libc.a(lib_a-memmove.o)
 .data          0x00000000        0x0 ../../components/newlib/armca5/libc.a(lib_a-memmove.o)
 .bss           0x00000000        0x0 ../../components/newlib/armca5/libc.a(lib_a-memmove.o)
 .text          0x00000000        0x0 ../../components/newlib/armca5/libc.a(lib_a-memset.o)
 .data          0x00000000        0x0 ../../components/newlib/armca5/libc.a(lib_a-memset.o)
 .bss           0x00000000        0x0 ../../components/newlib/armca5/libc.a(lib_a-memset.o)
 .text          0x00000000        0x0 ../../components/newlib/armca5/libc.a(lib_a-strcat.o)
 .data          0x00000000        0x0 ../../components/newlib/armca5/libc.a(lib_a-strcat.o)
 .bss           0x00000000        0x0 ../../components/newlib/armca5/libc.a(lib_a-strcat.o)
 .text.strcat   0x00000000       0x40 ../../components/newlib/armca5/libc.a(lib_a-strcat.o)
 .comment       0x00000000       0x7a ../../components/newlib/armca5/libc.a(lib_a-strcat.o)
 .ARM.attributes
                0x00000000       0x37 ../../components/newlib/armca5/libc.a(lib_a-strcat.o)
 .text          0x00000000        0x0 ../../components/newlib/armca5/libc.a(lib_a-strchr.o)
 .data          0x00000000        0x0 ../../components/newlib/armca5/libc.a(lib_a-strchr.o)
 .bss           0x00000000        0x0 ../../components/newlib/armca5/libc.a(lib_a-strchr.o)
 .text          0x00000000        0x0 ../../components/newlib/armca5/libc.a(lib_a-strcpy.o)
 .data          0x00000000        0x0 ../../components/newlib/armca5/libc.a(lib_a-strcpy.o)
 .bss           0x00000000        0x0 ../../components/newlib/armca5/libc.a(lib_a-strcpy.o)
 .text          0x00000000        0x0 ../../components/newlib/armca5/libc.a(lib_a-strdup.o)
 .data          0x00000000        0x0 ../../components/newlib/armca5/libc.a(lib_a-strdup.o)
 .bss           0x00000000        0x0 ../../components/newlib/armca5/libc.a(lib_a-strdup.o)
 .text          0x00000000        0x0 ../../components/newlib/armca5/libc.a(lib_a-strdup_r.o)
 .data          0x00000000        0x0 ../../components/newlib/armca5/libc.a(lib_a-strdup_r.o)
 .bss           0x00000000        0x0 ../../components/newlib/armca5/libc.a(lib_a-strdup_r.o)
 .data          0x00000000        0x0 ../../components/newlib/armca5/libc.a(lib_a-strlen.o)
 .bss           0x00000000        0x0 ../../components/newlib/armca5/libc.a(lib_a-strlen.o)
 .text          0x00000000        0x0 ../../components/newlib/armca5/libc.a(lib_a-strncmp.o)
 .data          0x00000000        0x0 ../../components/newlib/armca5/libc.a(lib_a-strncmp.o)
 .bss           0x00000000        0x0 ../../components/newlib/armca5/libc.a(lib_a-strncmp.o)
 .text          0x00000000        0x0 ../../components/newlib/armca5/libc.a(lib_a-strrchr.o)
 .data          0x00000000        0x0 ../../components/newlib/armca5/libc.a(lib_a-strrchr.o)
 .bss           0x00000000        0x0 ../../components/newlib/armca5/libc.a(lib_a-strrchr.o)
 .text          0x00000000        0x0 ../../components/newlib/armca5/libc.a(lib_a-getreent.o)
 .data          0x00000000        0x0 ../../components/newlib/armca5/libc.a(lib_a-getreent.o)
 .bss           0x00000000        0x0 ../../components/newlib/armca5/libc.a(lib_a-getreent.o)
 .data          0x00000000        0x0 ../../prebuilts/win32/gcc-arm-none-eabi/bin/../lib/gcc/arm-none-eabi/7.2.1/thumb/v7-ar/fpv3/hard/libgcc.a(_udivsi3.o)
 .bss           0x00000000        0x0 ../../prebuilts/win32/gcc-arm-none-eabi/bin/../lib/gcc/arm-none-eabi/7.2.1/thumb/v7-ar/fpv3/hard/libgcc.a(_udivsi3.o)
 .data          0x00000000        0x0 ../../prebuilts/win32/gcc-arm-none-eabi/bin/../lib/gcc/arm-none-eabi/7.2.1/thumb/v7-ar/fpv3/hard/libgcc.a(_divsi3.o)
 .bss           0x00000000        0x0 ../../prebuilts/win32/gcc-arm-none-eabi/bin/../lib/gcc/arm-none-eabi/7.2.1/thumb/v7-ar/fpv3/hard/libgcc.a(_divsi3.o)
 .data          0x00000000        0x0 ../../prebuilts/win32/gcc-arm-none-eabi/bin/../lib/gcc/arm-none-eabi/7.2.1/thumb/v7-ar/fpv3/hard/libgcc.a(_dvmd_tls.o)
 .bss           0x00000000        0x0 ../../prebuilts/win32/gcc-arm-none-eabi/bin/../lib/gcc/arm-none-eabi/7.2.1/thumb/v7-ar/fpv3/hard/libgcc.a(_dvmd_tls.o)
 .text          0x00000000       0xa0 ../../prebuilts/win32/gcc-arm-none-eabi/bin/../lib/gcc/arm-none-eabi/7.2.1/thumb/v7-ar/fpv3/hard/libgcc.a(_aeabi_ldivmod.o)
 .data          0x00000000        0x0 ../../prebuilts/win32/gcc-arm-none-eabi/bin/../lib/gcc/arm-none-eabi/7.2.1/thumb/v7-ar/fpv3/hard/libgcc.a(_aeabi_ldivmod.o)
 .bss           0x00000000        0x0 ../../prebuilts/win32/gcc-arm-none-eabi/bin/../lib/gcc/arm-none-eabi/7.2.1/thumb/v7-ar/fpv3/hard/libgcc.a(_aeabi_ldivmod.o)
 .debug_frame   0x00000000       0x44 ../../prebuilts/win32/gcc-arm-none-eabi/bin/../lib/gcc/arm-none-eabi/7.2.1/thumb/v7-ar/fpv3/hard/libgcc.a(_aeabi_ldivmod.o)
 .ARM.attributes
                0x00000000       0x1b ../../prebuilts/win32/gcc-arm-none-eabi/bin/../lib/gcc/arm-none-eabi/7.2.1/thumb/v7-ar/fpv3/hard/libgcc.a(_aeabi_ldivmod.o)
 .text          0x00000000       0x30 ../../prebuilts/win32/gcc-arm-none-eabi/bin/../lib/gcc/arm-none-eabi/7.2.1/thumb/v7-ar/fpv3/hard/libgcc.a(_aeabi_uldivmod.o)
 .data          0x00000000        0x0 ../../prebuilts/win32/gcc-arm-none-eabi/bin/../lib/gcc/arm-none-eabi/7.2.1/thumb/v7-ar/fpv3/hard/libgcc.a(_aeabi_uldivmod.o)
 .bss           0x00000000        0x0 ../../prebuilts/win32/gcc-arm-none-eabi/bin/../lib/gcc/arm-none-eabi/7.2.1/thumb/v7-ar/fpv3/hard/libgcc.a(_aeabi_uldivmod.o)
 .debug_frame   0x00000000       0x2c ../../prebuilts/win32/gcc-arm-none-eabi/bin/../lib/gcc/arm-none-eabi/7.2.1/thumb/v7-ar/fpv3/hard/libgcc.a(_aeabi_uldivmod.o)
 .ARM.attributes
                0x00000000       0x1b ../../prebuilts/win32/gcc-arm-none-eabi/bin/../lib/gcc/arm-none-eabi/7.2.1/thumb/v7-ar/fpv3/hard/libgcc.a(_aeabi_uldivmod.o)
 .text          0x00000000      0x144 ../../prebuilts/win32/gcc-arm-none-eabi/bin/../lib/gcc/arm-none-eabi/7.2.1/thumb/v7-ar/fpv3/hard/libgcc.a(_udivmoddi4.o)
 .data          0x00000000        0x0 ../../prebuilts/win32/gcc-arm-none-eabi/bin/../lib/gcc/arm-none-eabi/7.2.1/thumb/v7-ar/fpv3/hard/libgcc.a(_udivmoddi4.o)
 .bss           0x00000000        0x0 ../../prebuilts/win32/gcc-arm-none-eabi/bin/../lib/gcc/arm-none-eabi/7.2.1/thumb/v7-ar/fpv3/hard/libgcc.a(_udivmoddi4.o)
 .ARM.extab     0x00000000        0x0 ../../prebuilts/win32/gcc-arm-none-eabi/bin/../lib/gcc/arm-none-eabi/7.2.1/thumb/v7-ar/fpv3/hard/libgcc.a(_udivmoddi4.o)
 .ARM.exidx     0x00000000        0x8 ../../prebuilts/win32/gcc-arm-none-eabi/bin/../lib/gcc/arm-none-eabi/7.2.1/thumb/v7-ar/fpv3/hard/libgcc.a(_udivmoddi4.o)
 .debug_frame   0x00000000       0x40 ../../prebuilts/win32/gcc-arm-none-eabi/bin/../lib/gcc/arm-none-eabi/7.2.1/thumb/v7-ar/fpv3/hard/libgcc.a(_udivmoddi4.o)
 .ARM.attributes
                0x00000000       0x2d ../../prebuilts/win32/gcc-arm-none-eabi/bin/../lib/gcc/arm-none-eabi/7.2.1/thumb/v7-ar/fpv3/hard/libgcc.a(_udivmoddi4.o)
 .text          0x00000000        0x0 lib/libboot_calclib_crc.a(crc32.c.obj)
 .data          0x00000000        0x0 lib/libboot_calclib_crc.a(crc32.c.obj)
 .bss           0x00000000        0x0 lib/libboot_calclib_crc.a(crc32.c.obj)
 .text.crc32Update
                0x00000000       0x38 lib/libboot_calclib_crc.a(crc32.c.obj)
 .text.crc8RohcUpdate
                0x00000000       0x2c lib/libboot_calclib_crc.a(crc32.c.obj)
 .text.crc16NvCalc
                0x00000000       0x44 lib/libboot_calclib_crc.a(crc32.c.obj)
 .text.crc16RomBslCalc
                0x00000000       0x36 lib/libboot_calclib_crc.a(crc32.c.obj)
 .text.crc16RomBslCheck
                0x00000000        0xe lib/libboot_calclib_crc.a(crc32.c.obj)
 .text.crc16FdlCalc
                0x00000000       0x5c lib/libboot_calclib_crc.a(crc32.c.obj)
 .text          0x00000000        0x0 lib/libboot_ex_fat_rdonly.a(quec_boot_pff_rdonly.c.obj)
 .data          0x00000000        0x0 lib/libboot_ex_fat_rdonly.a(quec_boot_pff_rdonly.c.obj)
 .bss           0x00000000        0x0 lib/libboot_ex_fat_rdonly.a(quec_boot_pff_rdonly.c.obj)
 .text.ql_boot_fat_mount
                0x00000000       0x20 lib/libboot_ex_fat_rdonly.a(quec_boot_pff_rdonly.c.obj)
 .text.ql_boot_fat_file_size
                0x00000000       0x1c lib/libboot_ex_fat_rdonly.a(quec_boot_pff_rdonly.c.obj)
 .text          0x00000000        0x0 lib/libboot_ex_fat_rdonly.a(quec_boot_vfs.c.obj)
 .data          0x00000000        0x0 lib/libboot_ex_fat_rdonly.a(quec_boot_vfs.c.obj)
 .bss           0x00000000        0x0 lib/libboot_ex_fat_rdonly.a(quec_boot_vfs.c.obj)
 .text          0x00000000        0x0 lib/libboot_ex_fat_rdonly.a(pff_rdonly.c.obj)
 .data          0x00000000        0x0 lib/libboot_ex_fat_rdonly.a(pff_rdonly.c.obj)
 .bss           0x00000000        0x0 lib/libboot_ex_fat_rdonly.a(pff_rdonly.c.obj)
 .text          0x00000000        0x0 lib/libboot_ex_fat_rdonly.a(quec_boot_block_device.c.obj)
 .data          0x00000000        0x0 lib/libboot_ex_fat_rdonly.a(quec_boot_block_device.c.obj)
 .bss           0x00000000        0x0 lib/libboot_ex_fat_rdonly.a(quec_boot_block_device.c.obj)
 .text.quec_blockDeviceWrite
                0x00000000       0x2a lib/libboot_ex_fat_rdonly.a(quec_boot_block_device.c.obj)
 .text          0x00000000        0x0 lib/libboot_ex_fat_rdonly.a(diskio.c.obj)
 .data          0x00000000        0x0 lib/libboot_ex_fat_rdonly.a(diskio.c.obj)
 .bss           0x00000000        0x0 lib/libboot_ex_fat_rdonly.a(diskio.c.obj)
 .text.disk_initialize
                0x00000000        0x4 lib/libboot_ex_fat_rdonly.a(diskio.c.obj)
 .text          0x00000000        0x0 lib/libboot_ex_fat_rdonly.a(pff_basic.c.obj)
 .data          0x00000000        0x0 lib/libboot_ex_fat_rdonly.a(pff_basic.c.obj)
 .bss           0x00000000        0x0 lib/libboot_ex_fat_rdonly.a(pff_basic.c.obj)
 .text.st_word  0x00000000        0x6 lib/libboot_ex_fat_rdonly.a(pff_basic.c.obj)
 .text.st_dword
                0x00000000        0x6 lib/libboot_ex_fat_rdonly.a(pff_basic.c.obj)
 .text.mem_cpy  0x00000000       0x14 lib/libboot_ex_fat_rdonly.a(pff_basic.c.obj)
 .text.gen_numname
                0x00000000       0x94 lib/libboot_ex_fat_rdonly.a(pff_basic.c.obj)
 .text          0x00000000        0x0 lib/libboot_ex_sdmmc.a(quec_boot_sdmmc.c.obj)
 .data          0x00000000        0x0 lib/libboot_ex_sdmmc.a(quec_boot_sdmmc.c.obj)
 .bss           0x00000000        0x0 lib/libboot_ex_sdmmc.a(quec_boot_sdmmc.c.obj)
 .text.quec_boot_set_sdmmc_pin_driver
                0x00000000       0x44 lib/libboot_ex_sdmmc.a(quec_boot_sdmmc.c.obj)
 .text          0x00000000        0x0 lib/libboot_ex_sdmmc.a(quec_boot_sd.c.obj)
 .data          0x00000000        0x0 lib/libboot_ex_sdmmc.a(quec_boot_sd.c.obj)
 .bss           0x00000000        0x0 lib/libboot_ex_sdmmc.a(quec_boot_sd.c.obj)
 .text.prvSdmmcBsWriteOneBlock
                0x00000000       0x76 lib/libboot_ex_sdmmc.a(quec_boot_sd.c.obj)
 .text.quec_boot_sdmmc_write
                0x00000000       0x9c lib/libboot_ex_sdmmc.a(quec_boot_sd.c.obj)
 .text.quec_boot_sdmmc_destroy
                0x00000000       0x40 lib/libboot_ex_sdmmc.a(quec_boot_sd.c.obj)
 .text.quec_boot_sdmmc_init_ex
                0x00000000       0x84 lib/libboot_ex_sdmmc.a(quec_boot_sd.c.obj)
 .text          0x00000000        0x0 lib/libboot_ex_sdmmc.a(quec_boot_ifc.c.obj)
 .data          0x00000000        0x0 lib/libboot_ex_sdmmc.a(quec_boot_ifc.c.obj)
 .bss           0x00000000        0x0 lib/libboot_ex_sdmmc.a(quec_boot_ifc.c.obj)
 .text.bootdrvIfcWaitDone
                0x00000000        0xa lib/libboot_ex_sdmmc.a(quec_boot_ifc.c.obj)
 .text.bootdrvIfcWaitChannel
                0x00000000        0x4 lib/libboot_ex_sdmmc.a(quec_boot_ifc.c.obj)
 .text.bootdrvIfcReady
                0x00000000        0xa lib/libboot_ex_sdmmc.a(quec_boot_ifc.c.obj)
 .text.bootdrvIfcReleaseChannel
                0x00000000        0xa lib/libboot_ex_sdmmc.a(quec_boot_ifc.c.obj)
 .text.bootdrvIfcClearFlush
                0x00000000        0xa lib/libboot_ex_sdmmc.a(quec_boot_ifc.c.obj)
 .text.bootdrvIfcGetTC
                0x00000000        0xa lib/libboot_ex_sdmmc.a(quec_boot_ifc.c.obj)
 .text.bootdrvIfcStop
                0x00000000        0xa lib/libboot_ex_sdmmc.a(quec_boot_ifc.c.obj)
 .text.bootdrvIfcExtend
                0x00000000        0x6 lib/libboot_ex_sdmmc.a(quec_boot_ifc.c.obj)
 .text.bootdrvIfcIsFifoEmpty
                0x00000000        0xa lib/libboot_ex_sdmmc.a(quec_boot_ifc.c.obj)
 .text.bootdrvIfcIsRunning
                0x00000000        0xc lib/libboot_ex_sdmmc.a(quec_boot_ifc.c.obj)
 .text          0x00000000        0x0 lib/libboot_ex_spi6nor.a(quec_spi6_ext_norflash_cfg.c.obj)
 .data          0x00000000        0x0 lib/libboot_ex_spi6nor.a(quec_spi6_ext_norflash_cfg.c.obj)
 .bss           0x00000000        0x0 lib/libboot_ex_spi6nor.a(quec_spi6_ext_norflash_cfg.c.obj)
 .text.ql_boot_set_skip_spi6_ext_norflash_init
                0x00000000        0xc lib/libboot_ex_spi6nor.a(quec_spi6_ext_norflash_cfg.c.obj)
 .text.quec_spi6_ext_norflash_set_mount_status
                0x00000000        0xc lib/libboot_ex_spi6nor.a(quec_spi6_ext_norflash_cfg.c.obj)
 .text.quec_spi6_ext_nor_flash_unmount
                0x00000000       0x6c lib/libboot_ex_spi6nor.a(quec_spi6_ext_norflash_cfg.c.obj)
 .text.quec_spi6_ext_nor_flash_mkfs
                0x00000000       0x54 lib/libboot_ex_spi6nor.a(quec_spi6_ext_norflash_cfg.c.obj)
 .text.quec_boot_spi6_ext_norflash_gpio_deinit
                0x00000000       0x80 lib/libboot_ex_spi6nor.a(quec_spi6_ext_norflash_cfg.c.obj)
 .rodata.__FUNCTION__.48903
                0x00000000       0x20 lib/libboot_ex_spi6nor.a(quec_spi6_ext_norflash_cfg.c.obj)
 .rodata.quec_spi6_ext_nor_flash_unmount.str1.1
                0x00000000       0x2f lib/libboot_ex_spi6nor.a(quec_spi6_ext_norflash_cfg.c.obj)
 .text          0x00000000        0x0 lib/libboot_ex_spi6nor.a(quec_boot_pin_power_domain.c.obj)
 .data          0x00000000        0x0 lib/libboot_ex_spi6nor.a(quec_boot_pin_power_domain.c.obj)
 .bss           0x00000000        0x0 lib/libboot_ex_spi6nor.a(quec_boot_pin_power_domain.c.obj)
 .text.quec_boot_set_pin_reg_default_val
                0x00000000       0x28 lib/libboot_ex_spi6nor.a(quec_boot_pin_power_domain.c.obj)
 .text          0x00000000        0x0 lib/libboot_ex_ql_pin.a(quec_boot_pin_map.c.obj)
 .data          0x00000000        0x0 lib/libboot_ex_ql_pin.a(quec_boot_pin_map.c.obj)
 .bss           0x00000000        0x0 lib/libboot_ex_ql_pin.a(quec_boot_pin_map.c.obj)
 .text          0x00000000        0x0 lib/libcalclib.a(decompress_unlzma.c.obj)
 .data          0x00000000        0x0 lib/libcalclib.a(decompress_unlzma.c.obj)
 .bss           0x00000000        0x0 lib/libcalclib.a(decompress_unlzma.c.obj)
 .text          0x00000000        0x0 lib/libhal_prop.a(ql_hal_spi_flash_prop.c.obj)
 .data          0x00000000        0x0 lib/libhal_prop.a(ql_hal_spi_flash_prop.c.obj)
 .bss           0x00000000        0x0 lib/libhal_prop.a(ql_hal_spi_flash_prop.c.obj)
 .text          0x00000000        0x0 lib/libhal_prop.a(hal_iomux.c.obj)
 .data          0x00000000        0x0 lib/libhal_prop.a(hal_iomux.c.obj)
 .bss           0x00000000        0x0 lib/libhal_prop.a(hal_iomux.c.obj)
 .text.prvSetPadPull
                0x00000000       0x9e lib/libhal_prop.a(hal_iomux.c.obj)
 .text.prvSetPadDriving
                0x00000000       0x4e lib/libhal_prop.a(hal_iomux.c.obj)
 .text.prvSetPadInout.isra.1.part.2
                0x00000000       0x54 lib/libhal_prop.a(hal_iomux.c.obj)
 .text.prvIomuxSuspend
                0x00000000       0x30 lib/libhal_prop.a(hal_iomux.c.obj)
 .text.prvIomuxResume
                0x00000000       0x34 lib/libhal_prop.a(hal_iomux.c.obj)
 .text.prvSetPad
                0x00000000       0x56 lib/libhal_prop.a(hal_iomux.c.obj)
 .text.halIomuxSetInitConfig
                0x00000000       0x68 lib/libhal_prop.a(hal_iomux.c.obj)
 .text.halIomuxSetFunction
                0x00000000       0x80 lib/libhal_prop.a(hal_iomux.c.obj)
 .text.halIomuxSetPadDriving
                0x00000000       0x64 lib/libhal_prop.a(hal_iomux.c.obj)
 .text.quec_halIomuxGetAnalogReg
                0x00000000       0x2c lib/libhal_prop.a(hal_iomux.c.obj)
 .text.quec_halIomuxSetPadDriving
                0x00000000       0x60 lib/libhal_prop.a(hal_iomux.c.obj)
 .text.halIomuxSetPadPull
                0x00000000       0x64 lib/libhal_prop.a(hal_iomux.c.obj)
 .text.halIomuxSetPadInout
                0x00000000       0x68 lib/libhal_prop.a(hal_iomux.c.obj)
 .text.halIomuxGetFunPads
                0x00000000       0x68 lib/libhal_prop.a(hal_iomux.c.obj)
 .text.halIomuxGetPadFun
                0x00000000       0x58 lib/libhal_prop.a(hal_iomux.c.obj)
 .text.halIomuxFunName
                0x00000000       0x1c lib/libhal_prop.a(hal_iomux.c.obj)
 .text.halIomuxPadName
                0x00000000       0x1c lib/libhal_prop.a(hal_iomux.c.obj)
 .text.halIomuxShowInfo
                0x00000000       0x7c lib/libhal_prop.a(hal_iomux.c.obj)
 .text.halIomuxInit
                0x00000000       0x1c lib/libhal_prop.a(hal_iomux.c.obj)
 .bss.gHalIomuxCtx
                0x00000000      0x178 lib/libhal_prop.a(hal_iomux.c.obj)
 .rodata.gFunNames
                0x00000000      0x3d0 lib/libhal_prop.a(hal_iomux.c.obj)
 .rodata.gFunPadSel
                0x00000000      0x598 lib/libhal_prop.a(hal_iomux.c.obj)
 .rodata.gFunProp
                0x00000000      0x3d0 lib/libhal_prop.a(hal_iomux.c.obj)
 .rodata.gInitPad
                0x00000000       0x4c lib/libhal_prop.a(hal_iomux.c.obj)
 .rodata.gIomuxPmOps
                0x00000000       0x10 lib/libhal_prop.a(hal_iomux.c.obj)
 .rodata.gPadNames
                0x00000000      0x184 lib/libhal_prop.a(hal_iomux.c.obj)
 .rodata.gPadProp
                0x00000000      0x48c lib/libhal_prop.a(hal_iomux.c.obj)
 .rodata.halIomuxFunName.str1.1
                0x00000000        0x1 lib/libhal_prop.a(hal_iomux.c.obj)
 .rodata.halIomuxSetFunction.str1.1
                0x00000000       0x22 lib/libhal_prop.a(hal_iomux.c.obj)
 .rodata.halIomuxSetInitConfig.str1.1
                0x00000000       0x1c lib/libhal_prop.a(hal_iomux.c.obj)
 .rodata.halIomuxSetPadDriving.str1.1
                0x00000000       0x24 lib/libhal_prop.a(hal_iomux.c.obj)
 .rodata.halIomuxSetPadInout.str1.1
                0x00000000       0x22 lib/libhal_prop.a(hal_iomux.c.obj)
 .rodata.halIomuxSetPadPull.str1.1
                0x00000000       0x21 lib/libhal_prop.a(hal_iomux.c.obj)
 .rodata.halIomuxShowInfo.str1.1
                0x00000000       0x3e lib/libhal_prop.a(hal_iomux.c.obj)
 .rodata.quec_halIomuxSetPadDriving.str1.1
                0x00000000       0x42 lib/libhal_prop.a(hal_iomux.c.obj)
 .rodata.str1.1
                0x00000000      0xafc lib/libhal_prop.a(hal_iomux.c.obj)
 .debug_info    0x00000000     0x26f9 lib/libhal_prop.a(hal_iomux.c.obj)
 .debug_abbrev  0x00000000      0x4fb lib/libhal_prop.a(hal_iomux.c.obj)
 .debug_loc     0x00000000     0x10f5 lib/libhal_prop.a(hal_iomux.c.obj)
 .debug_aranges
                0x00000000       0xb0 lib/libhal_prop.a(hal_iomux.c.obj)
 .debug_ranges  0x00000000      0x280 lib/libhal_prop.a(hal_iomux.c.obj)
 .debug_line    0x00000000      0x53d lib/libhal_prop.a(hal_iomux.c.obj)
 .debug_str     0x00000000     0x1b68 lib/libhal_prop.a(hal_iomux.c.obj)
 .comment       0x00000000       0x7f lib/libhal_prop.a(hal_iomux.c.obj)
 .debug_frame   0x00000000      0x230 lib/libhal_prop.a(hal_iomux.c.obj)
 .ARM.attributes
                0x00000000       0x3d lib/libhal_prop.a(hal_iomux.c.obj)
 .text          0x00000000        0x0 lib/libfs_partinfo.a(ql_fs_part_info.c.obj)
 .data          0x00000000        0x0 lib/libfs_partinfo.a(ql_fs_part_info.c.obj)
 .bss           0x00000000        0x0 lib/libfs_partinfo.a(ql_fs_part_info.c.obj)
 .data          0x00000000        0x0 lib/libfs_partinfo.a(partinfo.bin.S.obj)
 .bss           0x00000000        0x0 lib/libfs_partinfo.a(partinfo.bin.S.obj)

Memory Configuration

Name             Origin             Length             Attributes
sram             0x00810040         0x0002ffc0         xrw
*default*        0x00000000         0xffffffff

Linker script and memory map

LOAD components/bootloader/CMakeFiles/boot2.dir/boot/boot2_start_8910.c.obj
LOAD lib/libbootloader.a
START GROUP
LOAD lib/libhal.a
LOAD lib/libosi_lib.a
LOAD lib/libfupdate_core.a
LOAD lib/libfupdate_security_boot.a
LOAD lib/libfsmount.a
LOAD lib/libsffs_core.a
LOAD lib/libbdev.a
LOAD lib/libbdev_core.a
LOAD lib/libboot_ex_ql.a
END GROUP
LOAD ../../components/newlib/armca5/libc.a
LOAD ../../prebuilts/win32/gcc-arm-none-eabi/bin/../lib/gcc/arm-none-eabi/7.2.1/thumb/v7-ar/fpv3/hard/libgcc.a
LOAD lib/libboot_calclib_crc.a
LOAD lib/libboot_ex_fat_rdonly.a
LOAD lib/libboot_ex_sdmmc.a
LOAD lib/libboot_ex_spi6nor.a
LOAD lib/libboot_ex_ql_pin.a
LOAD ../../components/libs/boot_encrypt/libboot_encrypt.a
LOAD lib/libcalclib.a
LOAD lib/libhal.a
LOAD lib/libdriver.a
LOAD lib/libhal_prop.a
LOAD lib/libdriver_lcd.a
LOAD lib/liboql_core_boot_virt_func.a
LOAD lib/libdriver_camera.a
LOAD lib/libhal.a
LOAD lib/libdriver.a
LOAD lib/libhal_prop.a
LOAD lib/libdriver_lcd.a
LOAD lib/liboql_core_boot_virt_func.a
LOAD lib/libdriver_camera.a
LOAD lib/libfs_partinfo.a

.text           0x00810040     0xe000
                0x00810040                __text_start = .
 *(BOOT_ENTRY)
 BOOT_ENTRY     0x00810040      0x25c lib/libbootloader.a(boot_entry_v7a.S.obj)
                0x00810040                Vectors
                0x008101e4                bootEntry
                0x00810260                bootJumpImageEntry
 SORT_BY_NAME(*)(.sramboottext .sramboottext.*)
 .sramboottext  0x0081029c       0x6c lib/libhal.a(hal_delay.c.obj)
                0x0081029c                osiDelayLoops
                0x008102a8                osiDelayUS
                0x008102c8                osiDebugEvent
                0x008102fc                osiHWTick16K
 .sramboottext  0x00810308       0x56 lib/libhal.a(hal_reg_apply.c.obj)
                0x00810308                halApplyRegisters
                0x0081033a                halApplyRegisterList
 SORT_BY_NAME(*)(.sramtext .sramtext.*)
 .sramtext      0x0081035e       0x1e lib/libhal.a(hal_chip_8910.c.obj)
                0x0081035e                uxPortSetInterruptMaskFromISR
                0x0081035e                vPortDisableInterrupts
                0x0081035e                uxPortEnterCritical
                0x0081035e                osiEnterCritical
                0x0081035e                osiIrqSave
                0x0081036e                osiExitCritical
                0x0081036e                osiIrqRestore
                0x0081036e                vPortExitCritical
                0x0081036e                vPortClearInterruptMaskFromISR
 SORT_BY_NAME(*)(.ramtext .ramtext.*)
 .ramtext.osi_log.430
                0x0081037c       0x98 lib/libbootloader.a(boot_log.c.obj)
 .ramtext.osi_log.521
                0x00810414       0x24 lib/libbootloader.a(boot_log.c.obj)
                0x00810414                osiTraceBasic
                0x00810414                boot_osiTraceBasic
 .ramtext.osi_log.535
                0x00810438       0x24 lib/libbootloader.a(boot_log.c.obj)
                0x00810438                osiTraceIdBasic
                0x00810438                boot_osiTraceIdBasic
 .ramtext.flashhal.989
                0x0081045c       0xe4 lib/libhal.a(hal_spi_flash.c.obj)
                0x0081045c                halSpiFlashCmd
 .ramtext.flashhal.245
                0x00810540       0x20 lib/libhal.a(hal_spi_flash.c.obj)
 .ramtext.flashhal.313
                0x00810560       0x14 lib/libhal.a(hal_spi_flash.c.obj)
 .ramtext.flashhal.329
                0x00810574       0x24 lib/libhal.a(hal_spi_flash.c.obj)
 .ramtext.flashhal.239
                0x00810598       0x16 lib/libhal.a(hal_spi_flash.c.obj)
 .ramtext.flashhal.509
                0x008105ae        0xa lib/libhal.a(hal_spi_flash.c.obj)
 .ramtext.flashhal.498
                0x008105b8        0xa lib/libhal.a(hal_spi_flash.c.obj)
 .ramtext.flashhal.487
                0x008105c2        0xa lib/libhal.a(hal_spi_flash.c.obj)
 .ramtext.flashhal.907
                0x008105cc       0x1a lib/libhal.a(hal_spi_flash.c.obj)
                0x008105cc                halSpiFlashErase
 .ramtext.flashhal.227
                0x008105e6       0x12 lib/libhal.a(hal_spi_flash.c.obj)
 .ramtext.flashhal.346
                0x008105f8       0x18 lib/libhal.a(hal_spi_flash.c.obj)
 .ramtext.flashhal.397
                0x00810610       0x24 lib/libhal.a(hal_spi_flash.c.obj)
 .ramtext.flashhal.476
                0x00810634        0xc lib/libhal.a(hal_spi_flash.c.obj)
                0x00810634                halSpiFlashPageProgram
 .ramtext.flashhal.370
                0x00810640       0x64 lib/libhal.a(hal_spi_flash.c.obj)
 .ramtext.flashhal.1068
                0x008106a4        0xa lib/libhal.a(hal_spi_flash.c.obj)
                0x008106a4                halSpiFlashWriteEnable
 *fill*         0x008106ae        0x2 
 .ramtext.flashhal.414
                0x008106b0      0x184 lib/libhal.a(hal_spi_flash.c.obj)
                0x008106b0                halSpiFlashPrepareEraseProgram
 .ramtext.flashhal.450
                0x00810834       0x6c lib/libhal.a(hal_spi_flash.c.obj)
                0x00810834                halSpiFlashFinishEraseProgram
 .ramtext.flashhal.1076
                0x008108a0        0xa lib/libhal.a(hal_spi_flash.c.obj)
                0x008108a0                halSpiFlashWriteDisable
 .ramtext.flashhal.1084
                0x008108aa        0xa lib/libhal.a(hal_spi_flash.c.obj)
                0x008108aa                halSpiFlashResetEnable
 .ramtext.flashhal.1092
                0x008108b4        0xa lib/libhal.a(hal_spi_flash.c.obj)
                0x008108b4                halSpiFlashReset
 .ramtext.flashhal.1100
                0x008108be       0x1a lib/libhal.a(hal_spi_flash.c.obj)
                0x008108be                halSpiFlashReadSR
 .ramtext.flashhal.1136
                0x008108d8       0x26 lib/libhal.a(hal_spi_flash.c.obj)
                0x008108d8                halSpiFlashIsWipFinished
 .ramtext.flashhal.1149
                0x008108fe       0x10 lib/libhal.a(hal_spi_flash.c.obj)
                0x008108fe                halSpiFlashWaitWipFinish
 .ramtext.flashhal.1108
                0x0081090e       0x6c lib/libhal.a(hal_spi_flash.c.obj)
                0x0081090e                halSpiFlashWriteSR
 *fill*         0x0081097a        0x2 
 .ramtext.flashhal.1272
                0x0081097c      0x18c lib/libhal.a(hal_spi_flash.c.obj)
                0x0081097c                halSpiFlashStatusCheck
 .ramtext.flashhal.1385
                0x00810b08      0x10c lib/libhal.a(hal_spi_flash.c.obj)
                0x00810b08                halSpiFlashInit
 .ramtext.flashhal.103
                0x00810c14       0x44 lib/libhal.a(hal_spi_flash.c.obj)
 .ramtext.flashhal.126
                0x00810c58       0x44 lib/libhal.a(hal_spi_flash.c.obj)
 .ramtext.flashhal.149
                0x00810c9c       0x44 lib/libhal.a(hal_spi_flash.c.obj)
 .ramtext.flashhal.172
                0x00810ce0       0x3c lib/libhal.a(hal_spi_flash.c.obj)
 .ramtext.flashhal.63
                0x00810d1c       0x34 lib/libhal.a(hal_spi_flash.c.obj)
 .ramtext.flashhal.82
                0x00810d50       0x3c lib/libhal.a(hal_spi_flash.c.obj)
 SORT_BY_NAME(*)(.text .text.* .gnu.linkonce.t.* .rdata .rodata .rodata.* .rodata1 .gnu.linkonce.r.*)
 .text.__getreent
                0x00810d8c        0xc ../../components/newlib/armca5/libc.a(lib_a-getreent.o)
                0x00810d8c                __getreent
 .text.memcmp   0x00810d98       0x5c ../../components/newlib/armca5/libc.a(lib_a-memcmp.o)
                0x00810d98                memcmp
 .text.memcpy   0x00810df4       0xc8 ../../components/newlib/armca5/libc.a(lib_a-memcpy-stub.o)
                0x00810df4                memcpy
 .text.memmove  0x00810ebc       0xd4 ../../components/newlib/armca5/libc.a(lib_a-memmove.o)
                0x00810ebc                memmove
 .text.memset   0x00810f90       0xa8 ../../components/newlib/armca5/libc.a(lib_a-memset.o)
                0x00810f90                memset
 .text.strchr   0x00811038       0xd0 ../../components/newlib/armca5/libc.a(lib_a-strchr.o)
                0x00811038                strchr
 .text.strcpy   0x00811108       0xc4 ../../components/newlib/armca5/libc.a(lib_a-strcpy.o)
                0x00811108                strcpy
 .text.strdup   0x008111cc       0x14 ../../components/newlib/armca5/libc.a(lib_a-strdup.o)
                0x008111cc                strdup
 .text._strdup_r
                0x008111e0       0x24 ../../components/newlib/armca5/libc.a(lib_a-strdup_r.o)
                0x008111e0                _strdup_r
 *fill*         0x00811204       0x3c 
 .text          0x00811240       0xdc ../../components/newlib/armca5/libc.a(lib_a-strlen.o)
                0x00811240                strlen
 .text.strncmp  0x0081131c       0x84 ../../components/newlib/armca5/libc.a(lib_a-strncmp.o)
                0x0081131c                strncmp
 .text.strrchr  0x008113a0       0x24 ../../components/newlib/armca5/libc.a(lib_a-strrchr.o)
                0x008113a0                strrchr
 *fill*         0x008113c4        0x4 
 .text          0x008113c8      0x2b0 ../../prebuilts/win32/gcc-arm-none-eabi/bin/../lib/gcc/arm-none-eabi/7.2.1/thumb/v7-ar/fpv3/hard/libgcc.a(_divsi3.o)
                0x008113c8                __divsi3
                0x008113c8                __aeabi_idiv
                0x0081165c                __aeabi_idivmod
 .text          0x00811678        0x4 ../../prebuilts/win32/gcc-arm-none-eabi/bin/../lib/gcc/arm-none-eabi/7.2.1/thumb/v7-ar/fpv3/hard/libgcc.a(_dvmd_tls.o)
                0x00811678                __aeabi_idiv0
                0x00811678                __aeabi_ldiv0
 *fill*         0x0081167c        0x4 
 .text          0x00811680      0x278 ../../prebuilts/win32/gcc-arm-none-eabi/bin/../lib/gcc/arm-none-eabi/7.2.1/thumb/v7-ar/fpv3/hard/libgcc.a(_udivsi3.o)
                0x00811680                __aeabi_uidiv
                0x00811680                __udivsi3
                0x008118dc                __aeabi_uidivmod
 .text.prvFirmwareUpdateProgress
                0x008118f8       0x20 components/bootloader/CMakeFiles/boot2.dir/boot/boot2_start_8910.c.obj
 .text.prvFirmwareUpdatePreProgress
                0x00811918       0x4c components/bootloader/CMakeFiles/boot2.dir/boot/boot2_start_8910.c.obj
 .text.bootStart
                0x00811964      0x244 components/bootloader/CMakeFiles/boot2.dir/boot/boot2_start_8910.c.obj
                0x00811964                bootStart
 .rodata.bootStart.str1.1
                0x00811ba8        0xc components/bootloader/CMakeFiles/boot2.dir/boot/boot2_start_8910.c.obj
 .rodata.prvFirmwareUpdatePreProgress.str1.1
                0x00811bb4       0x5a components/bootloader/CMakeFiles/boot2.dir/boot/boot2_start_8910.c.obj
 .rodata.prvFirmwareUpdateProgress.str1.1
                0x00811c0e       0x15 components/bootloader/CMakeFiles/boot2.dir/boot/boot2_start_8910.c.obj
 *fill*         0x00811c23        0x1 
 .text.blockDeviceRead
                0x00811c24        0xc lib/libbdev.a(block_device.c.obj)
                0x00811c24                blockDeviceRead
 .text.blockDeviceWrite
                0x00811c30        0xc lib/libbdev.a(block_device.c.obj)
                0x00811c30                blockDeviceWrite
 .text.blockDeviceErase
                0x00811c3c        0xc lib/libbdev.a(block_device.c.obj)
                0x00811c3c                blockDeviceErase
 .text.blockDeviceDestroy
                0x00811c48        0x8 lib/libbdev.a(block_device.c.obj)
                0x00811c48                blockDeviceDestroy
 .text._destroy
                0x00811c50        0x4 lib/libbdev.a(partition_block_device.c.obj)
 .text._erase   0x00811c54       0x14 lib/libbdev.a(partition_block_device.c.obj)
 .text._write   0x00811c68       0x14 lib/libbdev.a(partition_block_device.c.obj)
 .text._read    0x00811c7c       0x14 lib/libbdev.a(partition_block_device.c.obj)
 .text.partBlockDeviceCreate
                0x00811c90       0x78 lib/libbdev.a(partition_block_device.c.obj)
                0x00811c90                partBlockDeviceCreate
 .text.prvDestroy
                0x00811d08       0x1c lib/libbdev_core.a(flash_block_device_v2.c.obj)
 .text.prvStat  0x00811d24       0x64 lib/libbdev_core.a(flash_block_device_v2.c.obj)
 .text.prvPbGetStatus.isra.8
                0x00811d88       0x14 lib/libbdev_core.a(flash_block_device_v2.c.obj)
 .text.prvEbFindGcTo
                0x00811d9c       0x56 lib/libbdev_core.a(flash_block_device_v2.c.obj)
 .text.prvPbSetStatus.isra.9
                0x00811df2       0x2e lib/libbdev_core.a(flash_block_device_v2.c.obj)
 .text.prvFlashWrite
                0x00811e20       0x3c lib/libbdev_core.a(flash_block_device_v2.c.obj)
 .text.prvPbDelete
                0x00811e5c       0x1e lib/libbdev_core.a(flash_block_device_v2.c.obj)
 .text.prvErase
                0x00811e7a       0x72 lib/libbdev_core.a(flash_block_device_v2.c.obj)
 .text.prvFlashWriteCheck
                0x00811eec       0x28 lib/libbdev_core.a(flash_block_device_v2.c.obj)
 .text.prvFlashRead
                0x00811f14       0x44 lib/libbdev_core.a(flash_block_device_v2.c.obj)
 .text.prvPbReadTail
                0x00811f58        0xe lib/libbdev_core.a(flash_block_device_v2.c.obj)
 .text.prvRead  0x00811f66       0x7e lib/libbdev_core.a(flash_block_device_v2.c.obj)
 .text.prvPbMemCalcCrc.isra.13
                0x00811fe4       0x1c lib/libbdev_core.a(flash_block_device_v2.c.obj)
 .text.prvPbReadStatus
                0x00812000       0xa8 lib/libbdev_core.a(flash_block_device_v2.c.obj)
 .text.prvSetGeom
                0x008120a8       0xbe lib/libbdev_core.a(flash_block_device_v2.c.obj)
 *fill*         0x00812166        0x2 
 .text.prvScan  0x00812168      0x230 lib/libbdev_core.a(flash_block_device_v2.c.obj)
 .text.prvWrite
                0x00812398      0x34c lib/libbdev_core.a(flash_block_device_v2.c.obj)
 .text.flashBlockDeviceCreateV2
                0x008126e4       0xfc lib/libbdev_core.a(flash_block_device_v2.c.obj)
                0x008126e4                flashBlockDeviceCreateV2
 .text.flashBlockDeviceFormatV2
                0x008127e0       0x70 lib/libbdev_core.a(flash_block_device_v2.c.obj)
                0x008127e0                flashBlockDeviceFormatV2
 .rodata.gFbdev2Ops
                0x00812850       0x14 lib/libbdev_core.a(flash_block_device_v2.c.obj)
 .text.crc_table_init
                0x00812864       0x68 lib/libboot_calclib_crc.a(crc32.c.obj)
                0x00812864                crc_table_init
 .text.crc32Init
                0x008128cc       0x1c lib/libboot_calclib_crc.a(crc32.c.obj)
                0x008128cc                crc32Init
 .text.crc32Calc
                0x008128e8       0x38 lib/libboot_calclib_crc.a(crc32.c.obj)
                0x008128e8                crc32Calc
 .text.crc32VariantInit
                0x00812920       0x1c lib/libboot_calclib_crc.a(crc32.c.obj)
                0x00812920                crc32VariantInit
 .text.crc32VariantUpdate
                0x0081293c       0x34 lib/libboot_calclib_crc.a(crc32.c.obj)
                0x0081293c                crc32VariantUpdate
 .text.crc32VariantCalc
                0x00812970       0x34 lib/libboot_calclib_crc.a(crc32.c.obj)
                0x00812970                crc32VariantCalc
 .text.crc8RohcInit
                0x008129a4       0x1c lib/libboot_calclib_crc.a(crc32.c.obj)
                0x008129a4                crc8RohcInit
 .text.crc8RohcCalc
                0x008129c0       0x2c lib/libboot_calclib_crc.a(crc32.c.obj)
                0x008129c0                crc8RohcCalc
 .text.disk_readp
                0x008129ec        0x4 lib/libboot_ex_fat_rdonly.a(diskio.c.obj)
                0x008129ec                disk_readp
 .text.ff_convert
                0x008129f0       0x38 lib/libboot_ex_fat_rdonly.a(pff_basic.c.obj)
                0x008129f0                ff_convert
 .text.ld_word  0x00812a28        0x4 lib/libboot_ex_fat_rdonly.a(pff_basic.c.obj)
                0x00812a28                ld_word
 .text.ld_dword
                0x00812a2c        0x4 lib/libboot_ex_fat_rdonly.a(pff_basic.c.obj)
                0x00812a2c                ld_dword
 .text.mem_set  0x00812a30        0xe lib/libboot_ex_fat_rdonly.a(pff_basic.c.obj)
                0x00812a30                mem_set
 .text.mem_cmp  0x00812a3e       0x1c lib/libboot_ex_fat_rdonly.a(pff_basic.c.obj)
                0x00812a3e                mem_cmp
 .text.chk_chr  0x00812a5a        0xe lib/libboot_ex_fat_rdonly.a(pff_basic.c.obj)
                0x00812a5a                chk_chr
 .text.test_lfn
                0x00812a68       0x58 lib/libboot_ex_fat_rdonly.a(pff_basic.c.obj)
                0x00812a68                test_lfn
 .text.sum_sfn  0x00812ac0       0x1e lib/libboot_ex_fat_rdonly.a(pff_basic.c.obj)
                0x00812ac0                sum_sfn
 *fill*         0x00812ade        0x2 
 .text.clust2sect
                0x00812ae0       0x20 lib/libboot_ex_fat_rdonly.a(pff_basic.c.obj)
                0x00812ae0                clust2sect
 .text.get_clust
                0x00812b00        0xa lib/libboot_ex_fat_rdonly.a(pff_basic.c.obj)
                0x00812b00                get_clust
 *fill*         0x00812b0a        0x2 
 .text.create_name
                0x00812b0c      0x200 lib/libboot_ex_fat_rdonly.a(pff_basic.c.obj)
                0x00812b0c                create_name
 .text.check_fs
                0x00812d0c       0x5c lib/libboot_ex_fat_rdonly.a(pff_basic.c.obj)
                0x00812d0c                check_fs
 .rodata.LfnOfs
                0x00812d68        0xd lib/libboot_ex_fat_rdonly.a(pff_basic.c.obj)
                0x00812d68                LfnOfs
 *fill*         0x00812d75        0x1 
 .rodata.Tbl    0x00812d76      0x100 lib/libboot_ex_fat_rdonly.a(pff_basic.c.obj)
 .rodata.create_name.str1.1
                0x00812e76       0x10 lib/libboot_ex_fat_rdonly.a(pff_basic.c.obj)
 *fill*         0x00812e86        0x2 
 .text.get_fat  0x00812e88       0x7c lib/libboot_ex_fat_rdonly.a(pff_rdonly.c.obj)
 .text.dir_seek.constprop.2
                0x00812f04       0x44 lib/libboot_ex_fat_rdonly.a(pff_rdonly.c.obj)
 .text.pf_mount
                0x00812f48      0x158 lib/libboot_ex_fat_rdonly.a(pff_rdonly.c.obj)
                0x00812f48                pf_mount
 .text.pf_open  0x008130a0      0x204 lib/libboot_ex_fat_rdonly.a(pff_rdonly.c.obj)
                0x008130a0                pf_open
 .text.pf_read  0x008132a4       0xd4 lib/libboot_ex_fat_rdonly.a(pff_rdonly.c.obj)
                0x008132a4                pf_read
 .text.quec_blockDeviceRead
                0x00813378       0x20 lib/libboot_ex_fat_rdonly.a(quec_boot_block_device.c.obj)
                0x00813378                quec_blockDeviceRead
 .text.ql_boot_fat_open
                0x00813398       0x1a lib/libboot_ex_fat_rdonly.a(quec_boot_pff_rdonly.c.obj)
                0x00813398                ql_boot_fat_open
 .text.ql_boot_fat_read
                0x008133b2       0x22 lib/libboot_ex_fat_rdonly.a(quec_boot_pff_rdonly.c.obj)
                0x008133b2                ql_boot_fat_read
 .text.quec_get_real_path
                0x008133d4       0x28 lib/libboot_ex_fat_rdonly.a(quec_boot_pff_rdonly.c.obj)
                0x008133d4                quec_get_real_path
 .text.quec_boot_open_file
                0x008133fc       0x80 lib/libboot_ex_fat_rdonly.a(quec_boot_pff_rdonly.c.obj)
                0x008133fc                quec_boot_open_file
 .text.quec_bootVfsOpen
                0x0081347c       0x2a lib/libboot_ex_fat_rdonly.a(quec_boot_pff_rdonly.c.obj)
                0x0081347c                quec_bootVfsOpen
 *fill*         0x008134a6        0x2 
 .text.quec_bootVfsRead
                0x008134a8       0x30 lib/libboot_ex_fat_rdonly.a(quec_boot_pff_rdonly.c.obj)
                0x008134a8                quec_bootVfsRead
 .text.quec_bootVfsClose
                0x008134d8       0x28 lib/libboot_ex_fat_rdonly.a(quec_boot_pff_rdonly.c.obj)
                0x008134d8                quec_bootVfsClose
 .text.quec_bootVfsFileSize
                0x00813500       0x40 lib/libboot_ex_fat_rdonly.a(quec_boot_pff_rdonly.c.obj)
                0x00813500                quec_bootVfsFileSize
 .text.quec_bootVfsCheckPath
                0x00813540       0x12 lib/libboot_ex_fat_rdonly.a(quec_boot_pff_rdonly.c.obj)
                0x00813540                quec_bootVfsCheckPath
 .rodata.quec_boot_open_file.str1.1
                0x00813552       0x21 lib/libboot_ex_fat_rdonly.a(quec_boot_pff_rdonly.c.obj)
 .rodata.quec_get_real_path.str1.1
                0x00813573        0xe lib/libboot_ex_fat_rdonly.a(quec_boot_pff_rdonly.c.obj)
 *fill*         0x00813581        0x3 
 .text.ql_boot_fat_disk_read
                0x00813584       0x28 lib/libboot_ex_fat_rdonly.a(quec_boot_vfs.c.obj)
                0x00813584                ql_boot_fat_disk_read
 .text.quec_check_path_type
                0x008135ac       0x88 lib/libboot_ex_ql.a(quec_boot_fota.c.obj)
                0x008135ac                quec_check_path_type
 .text.prvQuec_Load_Fota_nv_Cfg
                0x00813634       0x90 lib/libboot_ex_ql.a(quec_boot_fota.c.obj)
                0x00813634                prvQuec_Load_Fota_nv_Cfg
 .text.quec_boot_fota_init
                0x008136c4       0xa4 lib/libboot_ex_ql.a(quec_boot_fota.c.obj)
                0x008136c4                quec_boot_fota_init
 .text.quec_boot_fota_pack_verify
                0x00813768       0xbc lib/libboot_ex_ql.a(quec_boot_fota.c.obj)
                0x00813768                quec_boot_fota_pack_verify
 .rodata.gFupdatePackFileNameInvalid
                0x00813824        0x9 lib/libboot_ex_ql.a(quec_boot_fota.c.obj)
 .rodata.prvQuec_Load_Fota_nv_Cfg.str1.1
                0x0081382d       0x5e lib/libboot_ex_ql.a(quec_boot_fota.c.obj)
 .rodata.quec_boot_fota_init.str1.1
                0x0081388b       0x37 lib/libboot_ex_ql.a(quec_boot_fota.c.obj)
 .rodata.quec_boot_fota_pack_verify.str1.1
                0x008138c2       0x12 lib/libboot_ex_ql.a(quec_boot_fota.c.obj)
 .rodata.quec_check_path_type.str1.1
                0x008138d4        0x8 lib/libboot_ex_ql.a(quec_boot_fota.c.obj)
                                 0x1d (size before relaxing)
 .rodata.ql_boot_model_diff_ctx
                0x008138dc        0x1 lib/libboot_ex_ql_pin.a(quec_boot_pin_map.c.obj)
                0x008138dc                ql_boot_model_diff_ctx
 *fill*         0x008138dd        0x3 
 .text.bootdrvIfcChannelInit
                0x008138e0       0x1c lib/libboot_ex_sdmmc.a(quec_boot_ifc.c.obj)
                0x008138e0                bootdrvIfcChannelInit
 .text.bootdrvIfcRequestChannel
                0x008138fc       0x44 lib/libboot_ex_sdmmc.a(quec_boot_ifc.c.obj)
                0x008138fc                bootdrvIfcRequestChannel
 .text.bootdrvIfcFlush
                0x00813940        0xa lib/libboot_ex_sdmmc.a(quec_boot_ifc.c.obj)
                0x00813940                bootdrvIfcFlush
 .text.bootdrvIfcStart
                0x0081394a       0x2e lib/libboot_ex_sdmmc.a(quec_boot_ifc.c.obj)
                0x0081394a                bootdrvIfcStart
 .rodata.bootdrvIfcRequestChannel.str1.1
                0x00813978       0x1f lib/libboot_ex_sdmmc.a(quec_boot_ifc.c.obj)
 *fill*         0x00813997        0x1 
 .rodata.gIfcDescs
                0x00813998       0x20 lib/libboot_ex_sdmmc.a(quec_boot_ifc.c.obj)
 .text.prvSdmmcSetClk
                0x008139b8       0x40 lib/libboot_ex_sdmmc.a(quec_boot_sd.c.obj)
 .text.prvSdmmcWaitCmdDone
                0x008139f8       0x2c lib/libboot_ex_sdmmc.a(quec_boot_sd.c.obj)
 .text.prvSdmmcWaitCmdResp
                0x00813a24       0x2e lib/libboot_ex_sdmmc.a(quec_boot_sd.c.obj)
 *fill*         0x00813a52        0x2 
 .text.prvSdmmcCommand
                0x00813a54      0x234 lib/libboot_ex_sdmmc.a(quec_boot_sd.c.obj)
 .text.prvSdmmcWaitTransDone.constprop.11
                0x00813c88       0x38 lib/libboot_ex_sdmmc.a(quec_boot_sd.c.obj)
 .text.quec_boot_sdmmc_read
                0x00813cc0       0xd0 lib/libboot_ex_sdmmc.a(quec_boot_sd.c.obj)
                0x00813cc0                quec_boot_sdmmc_read
 .text.quec_sdmmc_init_internal
                0x00813d90      0x3b4 lib/libboot_ex_sdmmc.a(quec_boot_sd.c.obj)
 .text.quec_boot_sdmmc_init
                0x00814144       0x7c lib/libboot_ex_sdmmc.a(quec_boot_sd.c.obj)
                0x00814144                quec_boot_sdmmc_init
 .rodata.quec_boot_sdmmc_init.str1.1
                0x008141c0       0x25 lib/libboot_ex_sdmmc.a(quec_boot_sd.c.obj)
 .rodata.quec_sdmmc_init_internal.str1.1
                0x008141e5       0x51 lib/libboot_ex_sdmmc.a(quec_boot_sd.c.obj)
 *fill*         0x00814236        0x2 
 .text.quec_boot_sdmmc_switch_power
                0x00814238       0x34 lib/libboot_ex_sdmmc.a(quec_boot_sdmmc.c.obj)
                0x00814238                quec_boot_sdmmc_switch_power
 .text.quec_boot_set_sdmmc_power_level
                0x0081426c       0x44 lib/libboot_ex_sdmmc.a(quec_boot_sdmmc.c.obj)
                0x0081426c                quec_boot_set_sdmmc_power_level
 .text.ql_boot_set_power_domain
                0x008142b0       0xf0 lib/libboot_ex_spi6nor.a(quec_boot_pin_power_domain.c.obj)
                0x008142b0                ql_boot_set_power_domain
 .text.quec_boot_pin_init
                0x008143a0       0x2c lib/libboot_ex_spi6nor.a(quec_boot_pin_power_domain.c.obj)
                0x008143a0                quec_boot_pin_init
 .text.quec_boot_get_pin_reg_default_val
                0x008143cc       0x12 lib/libboot_ex_spi6nor.a(quec_boot_pin_power_domain.c.obj)
                0x008143cc                quec_boot_get_pin_reg_default_val
 .rodata.ql_boot_set_power_domain.str1.1
                0x008143de       0x1d lib/libboot_ex_spi6nor.a(quec_boot_pin_power_domain.c.obj)
 *fill*         0x008143fb        0x1 
 .text.ql_set_spi6_ext_nor_flash_status
                0x008143fc        0xc lib/libboot_ex_spi6nor.a(quec_spi6_ext_norflash_cfg.c.obj)
                0x008143fc                ql_set_spi6_ext_nor_flash_status
 .text.ql_get_spi6_ext_nor_status
                0x00814408        0xc lib/libboot_ex_spi6nor.a(quec_spi6_ext_norflash_cfg.c.obj)
                0x00814408                ql_get_spi6_ext_nor_status
 .text.quec_spi6_ext_norflash_get_mount_status
                0x00814414        0xc lib/libboot_ex_spi6nor.a(quec_spi6_ext_norflash_cfg.c.obj)
                0x00814414                quec_spi6_ext_norflash_get_mount_status
 .text.quec_set_spi6_ext_nor_flash_capacity
                0x00814420       0x78 lib/libboot_ex_spi6nor.a(quec_spi6_ext_norflash_cfg.c.obj)
                0x00814420                quec_set_spi6_ext_nor_flash_capacity
 .text.quec_spi6_ext_nor_flash_mount
                0x00814498       0x7c lib/libboot_ex_spi6nor.a(quec_spi6_ext_norflash_cfg.c.obj)
                0x00814498                quec_spi6_ext_nor_flash_mount
 .text.quec_boot_spi6_pin_init
                0x00814514       0xa8 lib/libboot_ex_spi6nor.a(quec_spi6_ext_norflash_cfg.c.obj)
                0x00814514                quec_boot_spi6_pin_init
 .text.quec_boot_spi6_ext_norflash_gpio_init
                0x008145bc        0xc lib/libboot_ex_spi6nor.a(quec_spi6_ext_norflash_cfg.c.obj)
                0x008145bc                quec_boot_spi6_ext_norflash_gpio_init
 .text.quec_boot_spi6_ext_norflash_init
                0x008145c8       0x38 lib/libboot_ex_spi6nor.a(quec_spi6_ext_norflash_cfg.c.obj)
                0x008145c8                quec_boot_spi6_ext_norflash_init
 .text.quec_boot_get_spi6_ext_norflash_gpio_default_fuction
                0x00814600       0x80 lib/libboot_ex_spi6nor.a(quec_spi6_ext_norflash_cfg.c.obj)
                0x00814600                quec_boot_get_spi6_ext_norflash_gpio_default_fuction
 .rodata.__FUNCTION__.48887
                0x00814680       0x25 lib/libboot_ex_spi6nor.a(quec_spi6_ext_norflash_cfg.c.obj)
 .rodata.__FUNCTION__.48899
                0x008146a5       0x1e lib/libboot_ex_spi6nor.a(quec_spi6_ext_norflash_cfg.c.obj)
 .rodata.__FUNCTION__.48982
                0x008146c3       0x21 lib/libboot_ex_spi6nor.a(quec_spi6_ext_norflash_cfg.c.obj)
 .rodata.quec_boot_spi6_ext_norflash_init.str1.1
                0x008146e4       0x27 lib/libboot_ex_spi6nor.a(quec_spi6_ext_norflash_cfg.c.obj)
 .rodata.quec_set_spi6_ext_nor_flash_capacity.str1.1
                0x0081470b       0x5c lib/libboot_ex_spi6nor.a(quec_spi6_ext_norflash_cfg.c.obj)
 .rodata.quec_spi6_ext_nor_flash_mount.str1.1
                0x00814767       0x2f lib/libboot_ex_spi6nor.a(quec_spi6_ext_norflash_cfg.c.obj)
 *fill*         0x00814796        0x2 
 .text.bootAdiBusInit
                0x00814798       0x28 lib/libbootloader.a(boot_adi_bus.c.obj)
                0x00814798                bootAdiBusInit
                0x00814798                halAdiBusInit
 .text.bootAdiBusRead
                0x008147c0       0x2c lib/libbootloader.a(boot_adi_bus.c.obj)
                0x008147c0                halAdiBusRead
                0x008147c0                bootAdiBusRead
 .text.bootAdiBusWrite
                0x008147ec       0x1c lib/libbootloader.a(boot_adi_bus.c.obj)
                0x008147ec                halAdiBusWrite
                0x008147ec                bootAdiBusWrite
 .text.quec_bootAdiBusBatchChange
                0x00814808       0x50 lib/libbootloader.a(boot_adi_bus.c.obj)
                0x00814808                quec_bootAdiBusBatchChange
 .text.bootAdiBusChange
                0x00814858        0x4 lib/libbootloader.a(boot_adi_bus.c.obj)
                0x00814858                halAdiBusChange
                0x00814858                bootAdiBusChange
 .rodata        0x0081485c        0x4 lib/libbootloader.a(boot_adi_bus.c.obj)
 .text.bootDebuguartInit
                0x00814860       0x3c lib/libbootloader.a(boot_debuguart.c.obj)
                0x00814860                bootDebuguartInit
 .text.bootDebuguartWrite
                0x0081489c       0x34 lib/libbootloader.a(boot_debuguart.c.obj)
                0x0081489c                bootDebuguartWrite
 .text.bootDebuguartWriteAll
                0x008148d0       0x2e lib/libbootloader.a(boot_debuguart.c.obj)
                0x008148d0                bootDebuguartWriteAll
 .text.bootPanic
                0x008148fe        0x2 lib/libbootloader.a(boot_delay.c.obj)
                0x008148fe                osiPanic
                0x008148fe                bootPanic
 .text.bootElapsedTimerStart
                0x00814900       0x10 lib/libbootloader.a(boot_delay.c.obj)
                0x00814900                osiElapsedTimerStart
                0x00814900                bootElapsedTimerStart
 .text.bootElapsedTimeUS
                0x00814910       0x14 lib/libbootloader.a(boot_delay.c.obj)
                0x00814910                bootElapsedTimeUS
                0x00814910                osiElapsedTimeUS
 .text.bootIrqHandler
                0x00814924       0x1c lib/libbootloader.a(boot_irq.c.obj)
                0x00814924                bootIrqHandler
 .text.prvParamCount
                0x00814940       0x30 lib/libbootloader.a(boot_log.c.obj)
 .text.prvParamBuf
                0x00814970       0xc4 lib/libbootloader.a(boot_log.c.obj)
 .text.prvTraceIdBasic
                0x00814a34       0x74 lib/libbootloader.a(boot_log.c.obj)
                0x00814a34                prvTraceIdBasic
 .text.prvTraceIdEx
                0x00814aa8       0x9c lib/libbootloader.a(boot_log.c.obj)
                0x00814aa8                prvTraceIdEx
 .text.boot_osiTraceIdEx
                0x00814b44       0x24 lib/libbootloader.a(boot_log.c.obj)
                0x00814b44                osiTraceIdEx
                0x00814b44                boot_osiTraceIdEx
 .text.boot_osiTraceVprintf
                0x00814b68      0x2a0 lib/libbootloader.a(boot_log.c.obj)
                0x00814b68                boot_osiTraceVprintf
                0x00814b68                osiTraceVprintf
 .text.boot_osiTracePrintf
                0x00814e08       0x24 lib/libbootloader.a(boot_log.c.obj)
                0x00814e08                osiTracePrintf
                0x00814e08                boot_osiTracePrintf
 .rodata.parbufsize.45836
                0x00814e2c       0x18 lib/libbootloader.a(boot_log.c.obj)
 .rodata.parcount.45835
                0x00814e44       0x18 lib/libbootloader.a(boot_log.c.obj)
 .rodata.prvParamBuf.str1.1
                0x00814e5c        0x7 lib/libbootloader.a(boot_log.c.obj)
 *fill*         0x00814e63        0x1 
 .text._heap_malloc
                0x00814e64       0x38 lib/libbootloader.a(boot_mem.c.obj)
 .text._heap_calloc
                0x00814e9c       0x26 lib/libbootloader.a(boot_mem.c.obj)
 .text._heap_free
                0x00814ec2       0x76 lib/libbootloader.a(boot_mem.c.obj)
 .text.bootHeapInit
                0x00814f38       0x48 lib/libbootloader.a(boot_mem.c.obj)
                0x00814f38                bootHeapInit
 .text.bootFree
                0x00814f80       0x38 lib/libbootloader.a(boot_mem.c.obj)
                0x00814f80                bootFree
 .text.bootHeapDefaultExtRam
                0x00814fb8       0x10 lib/libbootloader.a(boot_mem.c.obj)
                0x00814fb8                bootHeapDefaultExtRam
 .text.bootExtRamMalloc
                0x00814fc8        0xc lib/libbootloader.a(boot_mem.c.obj)
                0x00814fc8                bootExtRamMalloc
 .text.bootExtRamCalloc
                0x00814fd4       0x10 lib/libbootloader.a(boot_mem.c.obj)
                0x00814fd4                bootExtRamCalloc
 .text.malloc   0x00814fe4       0x10 lib/libbootloader.a(boot_mem.c.obj)
                0x00814fe4                malloc
 .text.calloc   0x00814ff4       0x10 lib/libbootloader.a(boot_mem.c.obj)
                0x00814ff4                calloc
 .text.free     0x00815004        0x4 lib/libbootloader.a(boot_mem.c.obj)
                0x00815004                free
 .text.bootMmuEnable
                0x00815008      0x214 lib/libbootloader.a(boot_mmu.c.obj)
                0x00815008                bootMmuEnable
 .text.osiMutexCreate
                0x0081521c        0x4 lib/libbootloader.a(boot_override.c.obj)
                0x0081521c                osiMutexCreate
 .text.osiMutexDelete
                0x00815220        0x2 lib/libbootloader.a(boot_override.c.obj)
                0x00815220                osiMutexDelete
 .text.osiMutexLock
                0x00815222        0x2 lib/libbootloader.a(boot_override.c.obj)
                0x00815222                osiMutexLock
 .text.osiMutexUnlock
                0x00815224        0x2 lib/libbootloader.a(boot_override.c.obj)
                0x00815224                osiMutexUnlock
 *fill*         0x00815226        0x2 
 .text.bootReset
                0x00815228       0x48 lib/libbootloader.a(boot_platform_8910.c.obj)
                0x00815228                bootReset
 .text._psmPrepare
                0x00815270      0x144 lib/libbootloader.a(boot_platform_8910.c.obj)
                0x00815270                _psmPrepare
 .text.bootPowerOff
                0x008153b4       0x34 lib/libbootloader.a(boot_platform_8910.c.obj)
                0x008153b4                bootPowerOff
 .text.bootIsFromPsmSleep
                0x008153e8       0x3c lib/libbootloader.a(boot_platform_8910.c.obj)
                0x008153e8                bootIsFromPsmSleep
 .text.bootPowerOnCause
                0x00815424       0x44 lib/libbootloader.a(boot_platform_8910.c.obj)
                0x00815424                bootPowerOnCause
 .text.bootResetPinEnable
                0x00815468       0x44 lib/libbootloader.a(boot_platform_8910.c.obj)
                0x00815468                bootResetPinEnable
 .text.bootBlueScreen
                0x008154ac        0xc lib/libbootloader.a(boot_platform_8910.c.obj)
                0x008154ac                bootBlueScreen
 .text.prvRomHashInit
                0x008154b8       0x10 lib/libbootloader.a(boot_secure.c.obj)
 .text.prvRomHashUpdate
                0x008154c8        0xc lib/libbootloader.a(boot_secure.c.obj)
 .text.prvSecureInit
                0x008154d4       0x8c lib/libbootloader.a(boot_secure.c.obj)
 .text.prvEmbeddedSigCheck
                0x00815560      0x100 lib/libbootloader.a(boot_secure.c.obj)
 .text.bootSecureBootEnable
                0x00815660       0x28 lib/libbootloader.a(boot_secure.c.obj)
                0x00815660                bootSecureBootEnable
 .text.bootSecureUimageSigCheck
                0x00815688       0x22 lib/libbootloader.a(boot_secure.c.obj)
                0x00815688                bootSecureUimageSigCheck
 .rodata.prvEmbeddedSigCheck.str1.1
                0x008156aa       0x10 lib/libbootloader.a(boot_secure.c.obj)
 .text.drvSpiFlashOpen
                0x008156ba        0x4 lib/libbootloader.a(boot_sffs_port.c.obj)
                0x008156ba                drvSpiFlashOpen
 .text.drvSpiFlashMapAddress
                0x008156be        0x4 lib/libbootloader.a(boot_sffs_port.c.obj)
                0x008156be                drvSpiFlashMapAddress
 .text.drvSpiFlashWrite
                0x008156c2        0x4 lib/libbootloader.a(boot_sffs_port.c.obj)
                0x008156c2                drvSpiFlashWrite
 .text.drvSpiFlashErase
                0x008156c6        0x4 lib/libbootloader.a(boot_sffs_port.c.obj)
                0x008156c6                drvSpiFlashErase
 .text.prvErase
                0x008156ca       0x1e lib/libbootloader.a(boot_spi_flash.c.obj)
 .text.bootSpiFlashOpen
                0x008156e8       0x64 lib/libbootloader.a(boot_spi_flash.c.obj)
                0x008156e8                bootSpiFlashOpen
 .text.bootSpiFlashSetRangeWriteProhibit
                0x0081574c       0x38 lib/libbootloader.a(boot_spi_flash.c.obj)
                0x0081574c                bootSpiFlashSetRangeWriteProhibit
 .text.bootSpiFlashMapAddress
                0x00815784        0x6 lib/libbootloader.a(boot_spi_flash.c.obj)
                0x00815784                bootSpiFlashMapAddress
 .text.bootSpiFlashWriteNoWait
                0x0081578a       0x72 lib/libbootloader.a(boot_spi_flash.c.obj)
                0x0081578a                bootSpiFlashWriteNoWait
 .text.bootSpiFlashEraseNoWait
                0x008157fc       0xd6 lib/libbootloader.a(boot_spi_flash.c.obj)
                0x008157fc                bootSpiFlashEraseNoWait
 .text.bootSpiFlashErase
                0x008158d2       0x3c lib/libbootloader.a(boot_spi_flash.c.obj)
                0x008158d2                bootSpiFlashErase
 .text.bootSpiFlashWrite
                0x0081590e       0x46 lib/libbootloader.a(boot_spi_flash.c.obj)
                0x0081590e                bootSpiFlashWrite
 .rodata.bootSpiFlashOpen.str1.1
                0x00815954       0x20 lib/libbootloader.a(boot_spi_flash.c.obj)
 .text.bootTimerISR
                0x00815974       0x1c lib/libbootloader.a(boot_timer.c.obj)
                0x00815974                bootTimerISR
 .text.bootTraceInit
                0x00815990       0x18 lib/libbootloader.a(boot_trace.c.obj)
                0x00815990                bootTraceInit
 .text.bootTraceBufPut
                0x008159a8        0xa lib/libbootloader.a(boot_trace.c.obj)
                0x008159a8                bootTraceBufPut
                0x008159a8                osiTraceBufPut
 .text.bootTraceBufPutMulti
                0x008159b2       0x22 lib/libbootloader.a(boot_trace.c.obj)
                0x008159b2                bootTraceBufPutMulti
                0x008159b2                osiTraceBufPutMulti
 .text._getFileByFd
                0x008159d4       0x34 lib/libbootloader.a(boot_vfs.c.obj)
 .text._getFileByPath
                0x00815a08       0x70 lib/libbootloader.a(boot_vfs.c.obj)
 .text.quec_boot_check_path_valid
                0x00815a78       0x5c lib/libbootloader.a(boot_vfs.c.obj)
                0x00815a78                quec_boot_check_path_valid
 .text.quec_boot_jump_kernel
                0x00815ad4       0x38 lib/libbootloader.a(boot_vfs.c.obj)
                0x00815ad4                quec_boot_jump_kernel
 .text.bootVfsMount
                0x00815b0c       0x6c lib/libbootloader.a(boot_vfs.c.obj)
                0x00815b0c                bootVfsMount
 .text.bootVfsMountHandle
                0x00815b78       0x34 lib/libbootloader.a(boot_vfs.c.obj)
                0x00815b78                vfs_mount_handle
                0x00815b78                bootVfsMountHandle
 .text.bootVfsOpen
                0x00815bac       0x80 lib/libbootloader.a(boot_vfs.c.obj)
                0x00815bac                vfs_open
                0x00815bac                bootVfsOpen
 .text.bootVfsRead
                0x00815c2c       0x36 lib/libbootloader.a(boot_vfs.c.obj)
                0x00815c2c                vfs_read
                0x00815c2c                bootVfsRead
 .text.bootVfsLseek
                0x00815c62       0x2e lib/libbootloader.a(boot_vfs.c.obj)
                0x00815c62                vfs_lseek
                0x00815c62                bootVfsLseek
 .text.bootVfsClose
                0x00815c90       0x30 lib/libbootloader.a(boot_vfs.c.obj)
                0x00815c90                vfs_close
                0x00815c90                bootVfsClose
 .text.bootVfsUnlink
                0x00815cc0       0x32 lib/libbootloader.a(boot_vfs.c.obj)
                0x00815cc0                bootVfsUnlink
                0x00815cc0                vfs_unlink
 .text.bootVfsFileRead
                0x00815cf2       0x2a lib/libbootloader.a(boot_vfs.c.obj)
                0x00815cf2                vfs_sfile_read
                0x00815cf2                vfs_file_read
                0x00815cf2                bootVfsFileRead
 .text.bootVfsSfileWrite
                0x00815d1c       0x44 lib/libbootloader.a(boot_vfs.c.obj)
                0x00815d1c                vfs_sfile_write
                0x00815d1c                bootVfsSfileWrite
 .text.quec_boot_fota_force_finish
                0x00815d60       0x50 lib/libbootloader.a(boot_vfs.c.obj)
                0x00815d60                quec_boot_fota_force_finish
 .text.bootVfsFstat
                0x00815db0       0x36 lib/libbootloader.a(boot_vfs.c.obj)
                0x00815db0                vfs_fstat
                0x00815db0                bootVfsFstat
 .text.bootVfsFileSize
                0x00815de6       0x42 lib/libbootloader.a(boot_vfs.c.obj)
                0x00815de6                vfs_file_size
                0x00815de6                bootVfsFileSize
                0x00815de6                vfs_sfile_size
 .text.bootVfsSfileInit
                0x00815e28        0xa lib/libbootloader.a(boot_vfs.c.obj)
                0x00815e28                bootVfsSfileInit
                0x00815e28                vfs_sfile_init
 .text.bootVfsMkFilePath
                0x00815e32       0x82 lib/libbootloader.a(boot_vfs.c.obj)
                0x00815e32                vfs_mkfilepath
                0x00815e32                bootVfsMkFilePath
 .text.bootSffsMount
                0x00815eb4       0x3e lib/libbootloader.a(boot_vfs.c.obj)
                0x00815eb4                bootSffsMount
                0x00815eb4                sffsVfsMount
 .text.bootSffsMkfs
                0x00815ef2        0xa lib/libbootloader.a(boot_vfs.c.obj)
                0x00815ef2                sffsVfsMkfs
                0x00815ef2                bootSffsMkfs
 .rodata.__FUNCTION__.8957
                0x00815efc       0x1c lib/libbootloader.a(boot_vfs.c.obj)
 .rodata.__FUNCTION__.9009
                0x00815f18        0xc lib/libbootloader.a(boot_vfs.c.obj)
 .rodata.bootVfsOpen.str1.1
                0x00815f24       0x10 lib/libbootloader.a(boot_vfs.c.obj)
 .rodata.quec_boot_check_path_valid.str1.1
                0x00815f34       0x15 lib/libbootloader.a(boot_vfs.c.obj)
 .rodata.quec_boot_fota_force_finish.str1.1
                0x00815f49       0x1d lib/libbootloader.a(boot_vfs.c.obj)
 .text.read_int
                0x00815f66       0x22 lib/libcalclib.a(decompress_unlzma.c.obj)
 .text.noerror  0x00815f88        0x2 lib/libcalclib.a(decompress_unlzma.c.obj)
 .text.nofill   0x00815f8a        0x6 lib/libcalclib.a(decompress_unlzma.c.obj)
 .text.rc_read  0x00815f90       0x2c lib/libcalclib.a(decompress_unlzma.c.obj)
 .text.rc_do_normalize
                0x00815fbc       0x28 lib/libcalclib.a(decompress_unlzma.c.obj)
 .text.rc_update_bit_0
                0x00815fe4       0x12 lib/libcalclib.a(decompress_unlzma.c.obj)
 .text.rc_update_bit_1
                0x00815ff6       0x1a lib/libcalclib.a(decompress_unlzma.c.obj)
 .text.write_byte
                0x00816010       0x8c lib/libcalclib.a(decompress_unlzma.c.obj)
 .text.peek_old_byte
                0x0081609c       0x38 lib/libcalclib.a(decompress_unlzma.c.obj)
 .text.rc_is_bit_0
                0x008160d4       0x28 lib/libcalclib.a(decompress_unlzma.c.obj)
 .text.rc_get_bit
                0x008160fc       0x32 lib/libcalclib.a(decompress_unlzma.c.obj)
 *fill*         0x0081612e        0x2 
 .text.lzmaDecompress
                0x00816130      0x660 lib/libcalclib.a(decompress_unlzma.c.obj)
                0x00816130                lzmaDecompress
 .text.lzmaDecompressProbe
                0x00816790       0x88 lib/libcalclib.a(decompress_unlzma.c.obj)
                0x00816790                lzmaDecompressProbe
 .text.lzmaDecompressMem
                0x00816818       0x1e lib/libcalclib.a(decompress_unlzma.c.obj)
                0x00816818                lzmaDecompressMem
 .rodata.lzmaDecompress.str1.1
                0x00816836       0x40 lib/libcalclib.a(decompress_unlzma.c.obj)
 .rodata.rc_read.str1.1
                0x00816876        0xf lib/libcalclib.a(decompress_unlzma.c.obj)
 *fill*         0x00816885        0x3 
 .text          0x00816888      0x160 lib/libfs_partinfo.a(partinfo.bin.S.obj)
                0x00816888                gPartInfo
 .text.quec_fs_part_info_init
                0x008169e8       0x10 lib/libfs_partinfo.a(ql_fs_part_info.c.obj)
                0x008169e8                quec_fs_part_info_init
 .text.prvFlagIgnored
                0x008169f8       0x20 lib/libfsmount.a(fs_mount.c.obj)
 .text.prvRegisterBlockDevice
                0x00816a18       0x44 lib/libfsmount.a(fs_mount.c.obj)
 .text.fsFindBlockDeviceByName
                0x00816a5c       0x18 lib/libfsmount.a(fs_mount.c.obj)
                0x00816a5c                fsFindBlockDeviceByName
 .text.prvCreateSubpart
                0x00816a74       0x64 lib/libfsmount.a(fs_mount.c.obj)
 .text.prvMountSffs
                0x00816ad8       0xb4 lib/libfsmount.a(fs_mount.c.obj)
                0x00816ad8                prvMountSffs
 .text.prvCreateFbdev2
                0x00816b8c       0xc0 lib/libfsmount.a(fs_mount.c.obj)
                0x00816b8c                prvCreateFbdev2
 .text.fsMountSetScenario
                0x00816c4c       0x14 lib/libfsmount.a(fs_mount.c.obj)
                0x00816c4c                fsMountSetScenario
 .text.fsMountAll
                0x00816c60      0x148 lib/libfsmount.a(fs_mount.c.obj)
                0x00816c60                fsMountAll
 .rodata.prvCreateFbdev2.str1.1
                0x00816da8       0x1d lib/libfsmount.a(fs_mount.c.obj)
 *fill*         0x00816dc5        0x1 
 .text.prvProgressNone
                0x00816dc6        0x2 lib/libfupdate_core.a(fupdate_bootloader.c.obj)
 .text._bulkBlockedFileAllocMem
                0x00816dc8       0x50 lib/libfupdate_core.a(fupdate_bootloader.c.obj)
 .text._decompressBundle
                0x00816e18       0x94 lib/libfupdate_core.a(fupdate_bootloader.c.obj)
 .text._decompBlockedFile
                0x00816eac       0x54 lib/libfupdate_core.a(fupdate_bootloader.c.obj)
 .text._fileWriteAndCheck
                0x00816f00       0x34 lib/libfupdate_core.a(fupdate_bootloader.c.obj)
 .text.fupdateGetUpdatingType
                0x00816f34       0x18 lib/libfupdate_core.a(fupdate_bootloader.c.obj)
                0x00816f34                fupdateGetUpdatingType
 .text.fupdateGetFlashUpdatingContent
                0x00816f4c       0x28 lib/libfupdate_core.a(fupdate_bootloader.c.obj)
                0x00816f4c                fupdateGetFlashUpdatingContent
 .text.fupdateRunV2
                0x00816f74      0xd54 lib/libfupdate_core.a(fupdate_bootloader.c.obj)
                0x00816f74                fupdateRunV2
 .rodata.fupdateRunV2.str1.1
                0x00817cc8        0x9 lib/libfupdate_core.a(fupdate_bootloader.c.obj)
 *fill*         0x00817cd1        0x1 
 .text._updateFileCrc
                0x00817cd2       0x3c lib/libfupdate_core.a(fupdate_common.c.obj)
 *fill*         0x00817d0e        0x2 
 .text.fupdateBlockedFname
                0x00817d10       0x60 lib/libfupdate_core.a(fupdate_common.c.obj)
                0x00817d10                fupdateBlockedFname
 .text.fupdateCheckFileSizeCrc
                0x00817d70       0x6c lib/libfupdate_core.a(fupdate_common.c.obj)
                0x00817d70                fupdateCheckFileSizeCrc
 .text.fupdateCheckPlainFileSizeCrc
                0x00817ddc       0x54 lib/libfupdate_core.a(fupdate_common.c.obj)
                0x00817ddc                fupdateCheckPlainFileSizeCrc
 .text.fupdateCheckBlockedFileSizeCrc
                0x00817e30       0x92 lib/libfupdate_core.a(fupdate_common.c.obj)
                0x00817e30                fupdateCheckBlockedFileSizeCrc
 *fill*         0x00817ec2        0x2 
 .text.fupdateReadContext
                0x00817ec4       0x1c lib/libfupdate_core.a(fupdate_common.c.obj)
                0x00817ec4                fupdateReadContext
 .text.fupdateWriteContext
                0x00817ee0       0x1c lib/libfupdate_core.a(fupdate_common.c.obj)
                0x00817ee0                fupdateWriteContext
 .text.fupdateParseBulk
                0x00817efc      0x178 lib/libfupdate_core.a(fupdate_common.c.obj)
                0x00817efc                fupdateParseBulk
 .text.fupdateParsePack
                0x00818074       0x5e lib/libfupdate_core.a(fupdate_common.c.obj)
                0x00818074                fupdateParsePack
 .text.fupdateParseBundle
                0x008180d2       0x12 lib/libfupdate_core.a(fupdate_common.c.obj)
                0x008180d2                fupdateParseBundle
 .text.fupdateParseBundleData
                0x008180e4       0x6a lib/libfupdate_core.a(fupdate_common.c.obj)
                0x008180e4                fupdateParseBundleData
 .text.fupdateParseBlock
                0x0081814e       0x18 lib/libfupdate_core.a(fupdate_common.c.obj)
                0x0081814e                fupdateParseBlock
 .text.fupdateParseBlockSize
                0x00818166       0x24 lib/libfupdate_core.a(fupdate_common.c.obj)
                0x00818166                fupdateParseBlockSize
 .text.fupdateParsePiece
                0x0081818a       0x18 lib/libfupdate_core.a(fupdate_common.c.obj)
                0x0081818a                fupdateParsePiece
 .rodata.str1.1
                0x008181a2       0x30 lib/libfupdate_core.a(fupdate_common.c.obj)
 .text.osiDCacheClean
                0x008181d2       0x1c lib/libhal.a(hal_chip_8910.c.obj)
                0x008181d2                osiDCacheClean
 .text.osiDCacheInvalidate
                0x008181ee       0x18 lib/libhal.a(hal_chip_8910.c.obj)
                0x008181ee                osiDCacheInvalidate
 .text.osiDCacheCleanInvalidateAll
                0x00818206       0xac lib/libhal.a(hal_chip_8910.c.obj)
                0x00818206                osiDCacheCleanInvalidateAll
 *fill*         0x008182b2        0x2 
 .text.halSaveBlueScreenReg
                0x008182b4      0x210 lib/libhal.a(hal_chip_armv7a.c.obj)
                0x008182b4                halSaveBlueScreenReg
 .text.prvRamPhyPadCfg
                0x008184c4       0xb4 lib/libhal.a(hal_clock_init.c.obj)
 .text.prvRamDmcCfg
                0x00818578       0xbc lib/libhal.a(hal_clock_init.c.obj)
 .text.prvDelayUS
                0x00818634       0x14 lib/libhal.a(hal_clock_init.c.obj)
 .text._dmc400QosConfig
                0x00818648      0x164 lib/libhal.a(hal_clock_init.c.obj)
 .text.halPsramPllTrainAds0
                0x008187ac       0x3c lib/libhal.a(hal_clock_init.c.obj)
 .text.halPsramPllTrainAds1
                0x008187e8       0x3c lib/libhal.a(hal_clock_init.c.obj)
 .text.halWriteDllTrain
                0x00818824       0x40 lib/libhal.a(hal_clock_init.c.obj)
 .text.halRamInit
                0x00818864       0xb8 lib/libhal.a(hal_clock_init.c.obj)
                0x00818864                halRamInit
 .text.halClockInit
                0x0081891c      0x23c lib/libhal.a(hal_clock_init.c.obj)
                0x0081891c                halClockInit
 .rodata        0x00818b58        0x8 lib/libhal.a(hal_clock_init.c.obj)
 .text.prvEfuseSetDouble
                0x00818b60       0x10 lib/libhal.a(hal_efuse_8910.c.obj)
 .text.halEfuseOpen
                0x00818b70       0x60 lib/libhal.a(hal_efuse_8910.c.obj)
                0x00818b70                halEfuseOpen
 .text.halEfuseClose
                0x00818bd0       0x48 lib/libhal.a(hal_efuse_8910.c.obj)
                0x00818bd0                halEfuseClose
 .text.halEfuseDoubleRead
                0x00818c18       0x3c lib/libhal.a(hal_efuse_8910.c.obj)
                0x00818c18                halEfuseDoubleRead
 .text.halHwspinlockAcquire
                0x00818c54       0x38 lib/libhal.a(hal_hwspinlock.c.obj)
                0x00818c54                halHwspinlockAcquire
 .text.halHwspinlockRelease
                0x00818c8c       0x14 lib/libhal.a(hal_hwspinlock.c.obj)
                0x00818c8c                halHwspinlockRelease
 .text.halHwspinlockReleaseInCritical
                0x00818ca0       0x14 lib/libhal.a(hal_hwspinlock.c.obj)
                0x00818ca0                halHwspinlockReleaseInCritical
 .text.halLzmaDataSize
                0x00818cb4        0xc lib/libhal.a(hal_lzma.c.obj)
                0x00818cb4                halLzmaDataSize
 .text.halLzmaReset
                0x00818cc0       0x30 lib/libhal.a(hal_lzma.c.obj)
                0x00818cc0                halLzmaReset
 .text.halLzmaEnable
                0x00818cf0       0x18 lib/libhal.a(hal_lzma.c.obj)
                0x00818cf0                halLzmaEnable
 .text.halLzmaDisable
                0x00818d08       0x18 lib/libhal.a(hal_lzma.c.obj)
                0x00818d08                halLzmaDisable
 .text.halLzmaDecompressBlock
                0x00818d20       0xd0 lib/libhal.a(hal_lzma.c.obj)
                0x00818d20                halLzmaDecompressBlock
 .text.halLzmaDecompressFile
                0x00818df0       0xc0 lib/libhal.a(hal_lzma.c.obj)
                0x00818df0                halLzmaDecompressFile
 .text.halPmuExtFlashPowerOn
                0x00818eb0       0x6c lib/libhal.a(hal_pmu_8910.c.obj)
                0x00818eb0                halPmuExtFlashPowerOn
 .rodata.str1.1
                0x00818f1c       0x19 lib/libhal.a(hal_spi_flash.c.obj)
 *fill*         0x00818f35        0x3 
 .text.quec_spi_flash_props_init
                0x00818f38       0x20 lib/libhal_prop.a(ql_hal_spi_flash_prop.c.obj)
                0x00818f38                quec_spi_flash_props_init
 .text.quec_mipi_lcd_clk_set
                0x00818f58       0x14 lib/libhal_prop.a(ql_hal_spi_flash_prop.c.obj)
                0x00818f58                quec_mipi_lcd_clk_set
 .text.MatchFinder_GetPointerToCurrentPos
                0x00818f6c        0x4 lib/libsffs_core.a(LzFind.c.obj)
                0x00818f6c                MatchFinder_GetPointerToCurrentPos
 .text.MatchFinder_GetIndexByte
                0x00818f70        0x6 lib/libsffs_core.a(LzFind.c.obj)
                0x00818f70                MatchFinder_GetIndexByte
 .text.MatchFinder_GetNumAvailableBytes
                0x00818f76        0x8 lib/libsffs_core.a(LzFind.c.obj)
                0x00818f76                MatchFinder_GetNumAvailableBytes
 .text.MatchFinder_SetLimits
                0x00818f7e       0x3c lib/libsffs_core.a(LzFind.c.obj)
 .text.Hc_GetMatchesSpec
                0x00818fba       0x8a lib/libsffs_core.a(LzFind.c.obj)
 .text.SkipMatchesSpec
                0x00819044       0xa0 lib/libsffs_core.a(LzFind.c.obj)
 .text.MatchFinder_ReadBlock
                0x008190e4       0x6a lib/libsffs_core.a(LzFind.c.obj)
 .text.MatchFinder_Init
                0x0081914e       0x38 lib/libsffs_core.a(LzFind.c.obj)
                0x0081914e                MatchFinder_Init
 .text.MatchFinder_ReduceOffsets
                0x00819186       0x14 lib/libsffs_core.a(LzFind.c.obj)
                0x00819186                MatchFinder_ReduceOffsets
 .text.MatchFinder_MoveBlock
                0x0081919a       0x22 lib/libsffs_core.a(LzFind.c.obj)
                0x0081919a                MatchFinder_MoveBlock
 .text.MatchFinder_NeedMove
                0x008191bc       0x1e lib/libsffs_core.a(LzFind.c.obj)
                0x008191bc                MatchFinder_NeedMove
 *fill*         0x008191da        0x2 
 .text.MatchFinder_Construct
                0x008191dc       0x40 lib/libsffs_core.a(LzFind.c.obj)
                0x008191dc                MatchFinder_Construct
 .text.MatchFinder_Free
                0x0081921c       0x22 lib/libsffs_core.a(LzFind.c.obj)
                0x0081921c                MatchFinder_Free
 *fill*         0x0081923e        0x2 
 .text.MatchFinder_Create
                0x00819240      0x128 lib/libsffs_core.a(LzFind.c.obj)
                0x00819240                MatchFinder_Create
 .text.MatchFinder_Normalize3
                0x00819368       0x1a lib/libsffs_core.a(LzFind.c.obj)
                0x00819368                MatchFinder_Normalize3
 .text.MatchFinder_CheckLimits
                0x00819382       0x6a lib/libsffs_core.a(LzFind.c.obj)
 .text.MatchFinder_MovePos
                0x008193ec       0x1e lib/libsffs_core.a(LzFind.c.obj)
 .text.Bt4_MatchFinder_Skip
                0x0081940a       0xa2 lib/libsffs_core.a(LzFind.c.obj)
 .text.Bt3_MatchFinder_Skip
                0x008194ac       0x86 lib/libsffs_core.a(LzFind.c.obj)
 .text.Bt2_MatchFinder_Skip
                0x00819532       0x68 lib/libsffs_core.a(LzFind.c.obj)
 .text.Hc4_MatchFinder_Skip
                0x0081959a       0x8a lib/libsffs_core.a(LzFind.c.obj)
 .text.Hc4_MatchFinder_GetMatches
                0x00819624      0x146 lib/libsffs_core.a(LzFind.c.obj)
 .text.GetMatchesSpec1
                0x0081976a       0xfa lib/libsffs_core.a(LzFind.c.obj)
                0x0081976a                GetMatchesSpec1
 .text.Bt4_MatchFinder_GetMatches
                0x00819864      0x156 lib/libsffs_core.a(LzFind.c.obj)
 .text.Bt3_MatchFinder_GetMatches
                0x008199ba      0x10c lib/libsffs_core.a(LzFind.c.obj)
 .text.Bt2_MatchFinder_GetMatches
                0x00819ac6       0x74 lib/libsffs_core.a(LzFind.c.obj)
 *fill*         0x00819b3a        0x2 
 .text.MatchFinder_CreateVTable
                0x00819b3c       0x70 lib/libsffs_core.a(LzFind.c.obj)
                0x00819b3c                MatchFinder_CreateVTable
 .text.RangeEnc_FlushStream
                0x00819bac       0x32 lib/libsffs_core.a(LzmaEnc.c.obj)
 .text.RangeEnc_ShiftLow
                0x00819bde       0x66 lib/libsffs_core.a(LzmaEnc.c.obj)
 .text.RangeEnc_EncodeDirectBits
                0x00819c44       0x44 lib/libsffs_core.a(LzmaEnc.c.obj)
 .text.RangeEnc_EncodeBit
                0x00819c88       0x4e lib/libsffs_core.a(LzmaEnc.c.obj)
 .text.LitEnc_Encode
                0x00819cd6       0x24 lib/libsffs_core.a(LzmaEnc.c.obj)
 .text.LitEnc_GetPrice
                0x00819cfa       0x2c lib/libsffs_core.a(LzmaEnc.c.obj)
 .text.LitEnc_GetPriceMatched
                0x00819d26       0x42 lib/libsffs_core.a(LzmaEnc.c.obj)
 .text.RcTree_Encode
                0x00819d68       0x30 lib/libsffs_core.a(LzmaEnc.c.obj)
 .text.RcTree_ReverseEncode
                0x00819d98       0x32 lib/libsffs_core.a(LzmaEnc.c.obj)
 .text.RcTree_GetPrice
                0x00819dca       0x2e lib/libsffs_core.a(LzmaEnc.c.obj)
 .text.RcTree_ReverseGetPrice
                0x00819df8       0x2e lib/libsffs_core.a(LzmaEnc.c.obj)
 .text.LenEnc_Init
                0x00819e26       0x3a lib/libsffs_core.a(LzmaEnc.c.obj)
 .text.LenEnc_SetPrices
                0x00819e60       0xb2 lib/libsffs_core.a(LzmaEnc.c.obj)
 .text.MovePos  0x00819f12       0x22 lib/libsffs_core.a(LzmaEnc.c.obj)
 .text.ReadMatchDistances
                0x00819f34       0x88 lib/libsffs_core.a(LzmaEnc.c.obj)
 .text.FillAlignPrices
                0x00819fbc       0x3a lib/libsffs_core.a(LzmaEnc.c.obj)
 .text.FillDistancesPrices
                0x00819ff6      0x110 lib/libsffs_core.a(LzmaEnc.c.obj)
 .text.MyWrite  0x0081a106       0x2c lib/libsffs_core.a(LzmaEnc.c.obj)
 .text.LenEnc_Encode2
                0x0081a132       0xa4 lib/libsffs_core.a(LzmaEnc.c.obj)
 .text.GetPureRepPrice
                0x0081a1d6       0x7a lib/libsffs_core.a(LzmaEnc.c.obj)
 .text.Flush    0x0081a250      0x114 lib/libsffs_core.a(LzmaEnc.c.obj)
 .text.CheckErrors
                0x0081a364       0x32 lib/libsffs_core.a(LzmaEnc.c.obj)
 *fill*         0x0081a396        0x2 
 .text.LzmaEnc_CodeOneBlock
                0x0081a398     0x1674 lib/libsffs_core.a(LzmaEnc.c.obj)
 .text.LzmaEnc_Encode2
                0x0081ba0c       0x60 lib/libsffs_core.a(LzmaEnc.c.obj)
 .text.LzmaEncProps_Init
                0x0081ba6c       0x22 lib/libsffs_core.a(LzmaEnc.c.obj)
                0x0081ba6c                LzmaEncProps_Init
 .text.LzmaEncProps_Normalize
                0x0081ba8e       0xa4 lib/libsffs_core.a(LzmaEnc.c.obj)
                0x0081ba8e                LzmaEncProps_Normalize
 .text.LzmaEnc_FastPosInit
                0x0081bb32       0x32 lib/libsffs_core.a(LzmaEnc.c.obj)
                0x0081bb32                LzmaEnc_FastPosInit
 .text.LzmaEnc_SetProps
                0x0081bb64       0xa8 lib/libsffs_core.a(LzmaEnc.c.obj)
                0x0081bb64                LzmaEnc_SetProps
 .text.LzmaEnc_InitPriceTables
                0x0081bc0c       0x32 lib/libsffs_core.a(LzmaEnc.c.obj)
                0x0081bc0c                LzmaEnc_InitPriceTables
 .text.LzmaEnc_Construct
                0x0081bc3e       0x48 lib/libsffs_core.a(LzmaEnc.c.obj)
                0x0081bc3e                LzmaEnc_Construct
 *fill*         0x0081bc86        0x2 
 .text.LzmaEnc_Create
                0x0081bc88       0x18 lib/libsffs_core.a(LzmaEnc.c.obj)
                0x0081bc88                LzmaEnc_Create
 .text.LzmaEnc_FreeLits
                0x0081bca0       0x2e lib/libsffs_core.a(LzmaEnc.c.obj)
                0x0081bca0                LzmaEnc_FreeLits
 .text.LzmaEnc_Destruct
                0x0081bcce       0x2c lib/libsffs_core.a(LzmaEnc.c.obj)
                0x0081bcce                LzmaEnc_Destruct
 .text.LzmaEnc_Destroy
                0x0081bcfa       0x16 lib/libsffs_core.a(LzmaEnc.c.obj)
                0x0081bcfa                LzmaEnc_Destroy
 .text.LzmaEnc_Init
                0x0081bd10      0x122 lib/libsffs_core.a(LzmaEnc.c.obj)
                0x0081bd10                LzmaEnc_Init
 .text.LzmaEnc_InitPrices
                0x0081be32       0xd8 lib/libsffs_core.a(LzmaEnc.c.obj)
                0x0081be32                LzmaEnc_InitPrices
 .text.LzmaEnc_AllocAndInit
                0x0081bf0a      0x11e lib/libsffs_core.a(LzmaEnc.c.obj)
 .text.LzmaEnc_WriteProperties
                0x0081c028       0x6a lib/libsffs_core.a(LzmaEnc.c.obj)
                0x0081c028                LzmaEnc_WriteProperties
 *fill*         0x0081c092        0x2 
 .text.LzmaEnc_MemEncode
                0x0081c094       0x5c lib/libsffs_core.a(LzmaEnc.c.obj)
                0x0081c094                LzmaEnc_MemEncode
 .text.LzmaEncode
                0x0081c0f0       0x6e lib/libsffs_core.a(LzmaEnc.c.obj)
                0x0081c0f0                LzmaEncode
 *fill*         0x0081c15e        0x2 
 .rodata.kLiteralNextStates
                0x0081c160       0x30 lib/libsffs_core.a(LzmaEnc.c.obj)
 .rodata.kMatchNextStates
                0x0081c190       0x30 lib/libsffs_core.a(LzmaEnc.c.obj)
 .rodata.kRepNextStates
                0x0081c1c0       0x30 lib/libsffs_core.a(LzmaEnc.c.obj)
 .rodata.kShortRepNextStates
                0x0081c1f0       0x30 lib/libsffs_core.a(LzmaEnc.c.obj)
 .text.SzFree   0x0081c220        0x6 lib/libsffs_core.a(lzmar.c.obj)
 .text.SzAlloc  0x0081c226        0x6 lib/libsffs_core.a(lzmar.c.obj)
 .text._encodeBlock
                0x0081c22c       0x64 lib/libsffs_core.a(lzmar.c.obj)
 .text.lzmarCompress
                0x0081c290       0xc6 lib/libsffs_core.a(lzmar.c.obj)
                0x0081c290                lzmarCompress
 *fill*         0x0081c356        0x2 
 .text._cacheDataIsRootDir
                0x0081c358       0x1c lib/libsffs_core.a(sffs.c.obj)
 .text._cacheSetDirty
                0x0081c374       0x38 lib/libsffs_core.a(sffs.c.obj)
 .text._pathFileName
                0x0081c3ac       0x12 lib/libsffs_core.a(sffs.c.obj)
 .text._blockAllocFree
                0x0081c3be       0x5c lib/libsffs_core.a(sffs.c.obj)
 .text._blockIsFree.isra.12
                0x0081c41a       0x1a lib/libsffs_core.a(sffs.c.obj)
 .text._blockSetUsed
                0x0081c434       0x2e lib/libsffs_core.a(sffs.c.obj)
 .text._blockSetFree
                0x0081c462       0x30 lib/libsffs_core.a(sffs.c.obj)
 .text._isNodeOpened
                0x0081c492       0x24 lib/libsffs_core.a(sffs.c.obj)
 .text._getFileFromFd.isra.14
                0x0081c4b6        0xe lib/libsffs_core.a(sffs.c.obj)
 .text._cacheFindNotBusyByState.isra.20
                0x0081c4c4       0x14 lib/libsffs_core.a(sffs.c.obj)
 .text._cacheFlush
                0x0081c4d8       0x2a lib/libsffs_core.a(sffs.c.obj)
 .text._cacheFlushAll
                0x0081c502       0x1a lib/libsffs_core.a(sffs.c.obj)
 .text._cacheAllocForNode
                0x0081c51c       0xe0 lib/libsffs_core.a(sffs.c.obj)
 .text._cacheAllocWithData
                0x0081c5fc        0x6 lib/libsffs_core.a(sffs.c.obj)
 *fill*         0x0081c602        0x2 
 .text._fileGetDataNode
                0x0081c604       0x94 lib/libsffs_core.a(sffs.c.obj)
 .text._cacheAllocForWrite
                0x0081c698        0x6 lib/libsffs_core.a(sffs.c.obj)
 *fill*         0x0081c69e        0x2 
 .text._allocTablBlock
                0x0081c6a0       0x3c lib/libsffs_core.a(sffs.c.obj)
 .text._fileWriteAll
                0x0081c6dc      0x1ac lib/libsffs_core.a(sffs.c.obj)
 .text._dirRemoveChildNode
                0x0081c888       0x58 lib/libsffs_core.a(sffs.c.obj)
 .text._dirAddChildNodeIfNotExist
                0x0081c8e0       0x66 lib/libsffs_core.a(sffs.c.obj)
 .text.prvFileWriteAllNotExit
                0x0081c946       0x3e lib/libsffs_core.a(sffs.c.obj)
 .text.prvIsRootDirFull
                0x0081c984       0x42 lib/libsffs_core.a(sffs.c.obj)
 *fill*         0x0081c9c6        0x2 
 .text._blockScanDir
                0x0081c9c8      0x214 lib/libsffs_core.a(sffs.c.obj)
 .text._findByPathInParent
                0x0081cbdc       0x98 lib/libsffs_core.a(sffs.c.obj)
 .text._findByPath
                0x0081cc74       0x4c lib/libsffs_core.a(sffs.c.obj)
 .text._findParentByPath
                0x0081ccc0       0x40 lib/libsffs_core.a(sffs.c.obj)
 .text._removeNode
                0x0081cd00       0x3c lib/libsffs_core.a(sffs.c.obj)
 .text._removeMultiTabl
                0x0081cd3c       0x70 lib/libsffs_core.a(sffs.c.obj)
 .text._fileDecreaseSize
                0x0081cdac      0x2ec lib/libsffs_core.a(sffs.c.obj)
 .text._moveNodeRecovery
                0x0081d098      0x124 lib/libsffs_core.a(sffs.c.obj)
 .text._scanMoveRecovery
                0x0081d1bc       0x98 lib/libsffs_core.a(sffs.c.obj)
 .text.sffsFileBlockNeeded
                0x0081d254       0x4c lib/libsffs_core.a(sffs.c.obj)
                0x0081d254                sffsFileBlockNeeded
 .text.sffsMount
                0x0081d2a0      0x1fc lib/libsffs_core.a(sffs.c.obj)
                0x0081d2a0                sffsMount
 .text.sffsUnmount
                0x0081d49c       0x14 lib/libsffs_core.a(sffs.c.obj)
                0x0081d49c                sffsUnmount
 .text.sffsMakeFs
                0x0081d4b0       0x90 lib/libsffs_core.a(sffs.c.obj)
                0x0081d4b0                sffsMakeFs
 .text.sffsOpen
                0x0081d540      0x274 lib/libsffs_core.a(sffs.c.obj)
                0x0081d540                sffsOpen
 .text.sffsSfileWrite
                0x0081d7b4      0x3f8 lib/libsffs_core.a(sffs.c.obj)
                0x0081d7b4                sffsSfileWrite
 .text.sffsRead
                0x0081dbac      0x128 lib/libsffs_core.a(sffs.c.obj)
                0x0081dbac                sffsRead
 .text.sffsSeek
                0x0081dcd4       0x7c lib/libsffs_core.a(sffs.c.obj)
                0x0081dcd4                sffsSeek
 .text.sffsClose
                0x0081dd50       0x4c lib/libsffs_core.a(sffs.c.obj)
                0x0081dd50                sffsClose
 .text.sffsFstat
                0x0081dd9c       0x78 lib/libsffs_core.a(sffs.c.obj)
                0x0081dd9c                sffsFstat
 .text.sffsMkDir
                0x0081de14      0x14c lib/libsffs_core.a(sffs.c.obj)
                0x0081de14                sffsMkDir
 .text.sffsUnlink
                0x0081df60       0xc4 lib/libsffs_core.a(sffs.c.obj)
                0x0081df60                sffsUnlink
 .text.sffsSetSfileReserveCount
                0x0081e024       0x14 lib/libsffs_core.a(sffs.c.obj)
                0x0081e024                sffsSetSfileReserveCount
 *(.rokeep)
                0x0081e038                __text_end = .
                0x0081e040                . = ALIGN (0x20)
 *fill*         0x0081e038        0x8 

.data           0x0081e040      0x3c0
                0x0081e040                __data_start = .
 SORT_BY_NAME(*)(.sramdata .sramdata.*)
 SORT_BY_NAME(*)(.data .data.* .sdata .sdata.* .data1 .gnu.linkonce.d.*)
 .data._impure_ptr
                0x0081e040        0x4 components/bootloader/CMakeFiles/boot2.dir/boot/boot2_start_8910.c.obj
                0x0081e040                _impure_ptr
 .data.quec_pff_sector_size
                0x0081e044        0x4 lib/libboot_ex_fat_rdonly.a(pff_basic.c.obj)
                0x0081e044                quec_pff_sector_size
 .data.quec_boot_fs_type
                0x0081e048        0x1 lib/libboot_ex_ql.a(quec_boot_fota.c.obj)
                0x0081e048                quec_boot_fs_type
 .data.quec_fota_stage
                0x0081e049        0x9 lib/libboot_ex_ql.a(quec_boot_fota.c.obj)
                0x0081e049                quec_fota_stage
 *fill*         0x0081e052        0x2 
 .data.quec_boot_spi6_pin_cfg_map
                0x0081e054       0x98 lib/libboot_ex_ql_pin.a(quec_boot_pin_map.c.obj)
                0x0081e054                quec_boot_spi6_pin_cfg_map
 .data.ql_boot_sdmmc_cfg
                0x0081e0ec        0x8 lib/libboot_ex_sdmmc.a(quec_boot_sdmmc.c.obj)
                0x0081e0ec                ql_boot_sdmmc_cfg
 .data.ext_flash_gpio_cfg_reg
                0x0081e0f4       0x18 lib/libboot_ex_spi6nor.a(quec_spi6_ext_norflash_cfg.c.obj)
 .data.gPartInfo_extflash
                0x0081e10c       0x70 lib/libboot_ex_spi6nor.a(quec_spi6_ext_norflash_cfg.c.obj)
                0x0081e10c                gPartInfo_extflash
 .data.ql_spi6_ext_nor_flash_clk
                0x0081e17c        0x1 lib/libboot_ex_spi6nor.a(quec_spi6_ext_norflash_cfg.c.obj)
                0x0081e17c                ql_spi6_ext_nor_flash_clk
 .data.quec_skip_spi6_ext_nor_flash_init
                0x0081e17d        0x1 lib/libboot_ex_spi6nor.a(quec_spi6_ext_norflash_cfg.c.obj)
                0x0081e17d                quec_skip_spi6_ext_nor_flash_init
 *fill*         0x0081e17e        0x2 
 .data.gDrvSpiFlashCtx
                0x0081e180       0x80 lib/libbootloader.a(boot_spi_flash.c.obj)
 .data.gFsScenario
                0x0081e200        0x1 lib/libfsmount.a(fs_mount.c.obj)
 *fill*         0x0081e201        0x3 
 .data.gFupdatePackFileName
                0x0081e204        0x4 lib/libfupdate_core.a(fupdate_common.c.obj)
                0x0081e204                gFupdatePackFileName
 .data.gFupdateStageFileName
                0x0081e208        0x4 lib/libfupdate_core.a(fupdate_common.c.obj)
                0x0081e208                gFupdateStageFileName
 .data.gFupdateTempFileName
                0x0081e20c        0x4 lib/libfupdate_core.a(fupdate_common.c.obj)
                0x0081e20c                gFupdateTempFileName
 .data.ql_SpiFlashProps
                0x0081e210      0x1cc lib/libhal_prop.a(ql_hal_spi_flash_prop.c.obj)
                0x0081e210                ql_SpiFlashProps
 .data.ql_SpiFlashPropsLen
                0x0081e3dc        0x4 lib/libhal_prop.a(ql_hal_spi_flash_prop.c.obj)
                0x0081e3dc                ql_SpiFlashPropsLen
 .data.quec_nor_ext_mount_start_addr
                0x0081e3e0        0x4 lib/libhal_prop.a(ql_hal_spi_flash_prop.c.obj)
                0x0081e3e0                quec_nor_ext_mount_start_addr
 .data.g_Alloc  0x0081e3e4        0x8 lib/libsffs_core.a(lzmar.c.obj)
 *(.rwkeep)
 .rwkeep        0x0081e3ec        0x8 lib/libhal.a(hal_chip_armv7a.c.obj)
                0x0081e3ec                gGdbRegAddress
                0x0081e3f0                gGdbCtxType
                0x0081e3f4                __data_end = .
                0x0081e400                . = ALIGN (0x20)
 *fill*         0x0081e3f4        0xc 

.lastflash      0x0081e400        0x0
                0x0081e400                . = ALIGN (0x20)

.bss            0x0081e400      0xee0
                0x0081e400                __bss_start = .
 *(.srambss .srambss.*)
 *(.bss .bss.* COMMON .scommon .sbss .sbss.* .sbss2 .sbss2.* .gnu.linkonce.b.*)
 .bss.gZeroedReent
                0x0081e400      0x428 components/bootloader/CMakeFiles/boot2.dir/boot/boot2_start_8910.c.obj
 .bss.gSecureCtx
                0x0081e828       0x30 lib/libbootloader.a(boot_secure.c.obj)
 .bss.gDefaultHeap
                0x0081e858        0x4 lib/libbootloader.a(boot_mem.c.obj)
 .bss.gExtRamHeap
                0x0081e85c        0xc lib/libbootloader.a(boot_mem.c.obj)
 .bss.gIramHeap
                0x0081e868        0xc lib/libbootloader.a(boot_mem.c.obj)
 .bss.gBootVfsRegList
                0x0081e874        0x4 lib/libbootloader.a(boot_vfs.c.obj)
 .bss.quec_boot_start_param
                0x0081e878        0x4 lib/libbootloader.a(boot_vfs.c.obj)
                0x0081e878                quec_boot_start_param
 .bss.quec_header
                0x0081e87c        0x4 lib/libbootloader.a(boot_vfs.c.obj)
                0x0081e87c                quec_header
 .bss.quec_spi4_ext4n_nor_mount_flag
                0x0081e880        0x1 lib/libbootloader.a(boot_vfs.c.obj)
                0x0081e880                quec_spi4_ext4n_nor_mount_flag
 *fill*         0x0081e881        0x3 
 .bss.gTimerCb  0x0081e884        0x8 lib/libbootloader.a(boot_timer.c.obj)
 .bss.gTraceEnabled
                0x0081e88c        0x1 lib/libbootloader.a(boot_log.c.obj)
                0x0081e88c                gTraceEnabled
 *fill*         0x0081e88d        0x3 
 COMMON         0x0081e890       0x54 lib/libbootloader.a(boot_log.c.obj)
                0x0081e890                v_tra_pubModuleControl
                0x0081e894                v_tra_categoryControl
                0x0081e898                gTraceSequence
                0x0081e89c                v_tra_lteModuleControl
                0x0081e8a0                sxs_IoCtx
 .bss.ql_spi6_flash_type
                0x0081e8e4        0x1 lib/libhal.a(hal_pmu_8910.c.obj)
                0x0081e8e4                ql_spi6_flash_type
 .bss.quec_ext_flash_gpio_first_time_init
                0x0081e8e5        0x1 lib/libhal.a(hal_pmu_8910.c.obj)
 *fill*         0x0081e8e6        0x2 
 COMMON         0x0081e8e8      0x290 lib/libhal.a(hal_chip_armv7a.c.obj)
                0x0081e8e8                gBlueScreenCp15
                0x0081e9bc                gBlueScreenRegs
 .bss.gSpiFlashProps
                0x0081eb78        0x4 lib/libhal.a(hal_spi_flash.c.obj)
 .bss.gSpiFlashPropsLen
                0x0081eb7c        0x4 lib/libhal.a(hal_spi_flash.c.obj)
 .bss.gFotaEngine
                0x0081eb80        0x4 lib/libfupdate_core.a(fupdate_bootloader.c.obj)
 .bss.gBdevList
                0x0081eb84        0x4 lib/libfsmount.a(fs_mount.c.obj)
                0x0081eb84                gBdevList
 .bss.gPartInfo_ptr
                0x0081eb88        0x4 lib/libfsmount.a(fs_mount.c.obj)
                0x0081eb88                gPartInfo_ptr
 .bss.boot_fota_param
                0x0081eb8c       0xc4 lib/libboot_ex_ql.a(quec_boot_fota.c.obj)
                0x0081eb8c                boot_fota_param
 .bss.boot_urc_enable
                0x0081ec50        0x1 lib/libboot_ex_ql.a(quec_boot_fota.c.obj)
                0x0081ec50                boot_urc_enable
 .bss.quec_current_partition
                0x0081ec51        0x1 lib/libboot_ex_ql.a(quec_boot_fota.c.obj)
                0x0081ec51                quec_current_partition
 .bss.quec_partition_num
                0x0081ec52        0x1 lib/libboot_ex_ql.a(quec_boot_fota.c.obj)
                0x0081ec52                quec_partition_num
 *fill*         0x0081ec53        0x1 
 .bss.updata_urc_num
                0x0081ec54        0x4 lib/libboot_ex_ql.a(quec_boot_fota.c.obj)
                0x0081ec54                updata_urc_num
 .bss.gCrc32TableInited
                0x0081ec58        0x1 lib/libboot_calclib_crc.a(crc32.c.obj)
 .bss.gCrc8Table
                0x0081ec59      0x100 lib/libboot_calclib_crc.a(crc32.c.obj)
 .bss.gCrc8TableInited
                0x0081ed59        0x1 lib/libboot_calclib_crc.a(crc32.c.obj)
 *fill*         0x0081ed5a        0x2 
 .bss.vds_crc32_table
                0x0081ed5c      0x400 lib/libboot_calclib_crc.a(crc32.c.obj)
                0x0081ed5c                vds_crc32_table
 .bss.bootfs    0x0081f15c       0xb0 lib/libboot_ex_fat_rdonly.a(quec_boot_vfs.c.obj)
                0x0081f15c                bootfs
 .bss.quec_boot_vfs_state
                0x0081f20c        0x2 lib/libboot_ex_fat_rdonly.a(quec_boot_vfs.c.obj)
                0x0081f20c                quec_boot_vfs_state
 *fill*         0x0081f20e        0x2 
 COMMON         0x0081f210        0x8 lib/libboot_ex_fat_rdonly.a(quec_boot_vfs.c.obj)
                0x0081f210                quec_boot_block_dev
 .bss.mount_flag
                0x0081f218        0x2 lib/libboot_ex_fat_rdonly.a(pff_rdonly.c.obj)
 *fill*         0x0081f21a        0x2 
 COMMON         0x0081f21c       0xaa lib/libboot_ex_fat_rdonly.a(pff_basic.c.obj)
                0x0081f21c                FatFs
                0x0081f224                LfnBuf
 *fill*         0x0081f2c6        0x2 
 .bss.bootgv_sdmmc
                0x0081f2c8        0x4 lib/libboot_ex_sdmmc.a(quec_boot_sdmmc.c.obj)
                0x0081f2c8                bootgv_sdmmc
 .bss.tbuff_sdmmc
                0x0081f2cc        0x4 lib/libboot_ex_sdmmc.a(quec_boot_sdmmc.c.obj)
                0x0081f2cc                tbuff_sdmmc
 .bss.tbuff_sdmmc_32aligned
                0x0081f2d0        0x4 lib/libboot_ex_sdmmc.a(quec_boot_sdmmc.c.obj)
                0x0081f2d0                tbuff_sdmmc_32aligned
 .bss.qboot_sdmmc
                0x0081f2d4        0x4 lib/libboot_ex_sdmmc.a(quec_boot_sd.c.obj)
 .bss.quec_spi6_ext_nor_flash_capacity
                0x0081f2d8        0x4 lib/libboot_ex_spi6nor.a(quec_spi6_ext_norflash_cfg.c.obj)
                0x0081f2d8                quec_spi6_ext_nor_flash_capacity
 .bss.quec_spi6_ext_nor_flash_is_exist
                0x0081f2dc        0x1 lib/libboot_ex_spi6nor.a(quec_spi6_ext_norflash_cfg.c.obj)
                0x0081f2dc                quec_spi6_ext_nor_flash_is_exist
 .bss.quec_spi6_ext_norflash_mount_status
                0x0081f2dd        0x1 lib/libboot_ex_spi6nor.a(quec_spi6_ext_norflash_cfg.c.obj)
                0x0081f2dd                quec_spi6_ext_norflash_mount_status
 .bss.ql_boot_cur_spi6_port
                0x0081f2de        0x1 lib/libboot_ex_ql_pin.a(quec_boot_pin_map.c.obj)
                0x0081f2de                ql_boot_cur_spi6_port
                0x0081f2df                __bss_end = .
                0x0081f2e0                . = ALIGN (0x20)
 *fill*         0x0081f2df        0x1 

.sys_stack      0x0081f2e0     0x1800
                0x0081f2e0                __sys_stack_start = .
                0x00820ae0                . = (. + 0x1800)
 *fill*         0x0081f2e0     0x1800 
                0x00820ae0                __sys_stack_end = .
                0x00820ae0                . = ALIGN (0x20)

.irq_stack      0x00820ae0      0x800
                0x00820ae0                __irq_stack_start = .
                0x008212e0                . = (. + 0x800)
 *fill*         0x00820ae0      0x800 
                0x008212e0                __irq_stack_end = .
                0x008212e0                . = ALIGN (0x20)

.blue_screen    0x008212e0      0x600
                0x008212e0                __blue_screen_start = .
                0x008218e0                . = (. + 0x600)
 *fill*         0x008212e0      0x600 
                0x008218e0                __blue_screen_end = .
                0x008218e0                . = ALIGN (0x20)

.sram_heap      0x008218e0    0x1a320
                0x008218e0                __sram_heap_start = .
                0x0083bc00                . = ((ORIGIN (sram) + LENGTH (sram)) - 0x4400)
 *fill*         0x008218e0    0x1a320 
                0x0083bc00                __sram_heap_end = .
                0x0083bc00                . = ALIGN (0x20)

.mmu_ttbl2      0x0083bc00      0x400
                0x0083bc00                __mmu_ttbl2_start = .
                0x0083c000                . = (. + 0x400)
 *fill*         0x0083bc00      0x400 
                0x0083c000                __mmu_ttbl2_end = .
                0x0083c000                . = ALIGN (0x20)

.mmu_ttbl1      0x0083c000     0x4000
                0x0083c000                __mmu_ttbl1_start = .
                0x00840000                . = (. + 0x4000)
 *fill*         0x0083c000     0x4000 
                0x00840000                __mmu_ttbl1_end = .
                0x00840000                . = ALIGN (0x20)
                0x00000001                ASSERT (((__mmu_ttbl1_start % 0x4000) == 0x0), TTB L1 is not aligned)
                0x00810040                __flash_start = LOADADDR (.text)
                0x0081e400                __flash_end = ADDR (.lastflash)

.comment        0x00000000       0xf7
 *(.comment)
 .comment       0x00000000       0x7e components/bootloader/CMakeFiles/boot2.dir/boot/boot2_start_8910.c.obj
                                 0x7f (size before relaxing)
 .comment       0x0000007e       0x7f lib/libbootloader.a(boot_platform_8910.c.obj)
 .comment       0x0000007e       0x7f lib/libbootloader.a(boot_secure.c.obj)
 .comment       0x0000007e       0x7f lib/libbootloader.a(boot_sffs_port.c.obj)
 .comment       0x0000007e       0x7f lib/libbootloader.a(boot_delay.c.obj)
 .comment       0x0000007e       0x7f lib/libbootloader.a(boot_mem.c.obj)
 .comment       0x0000007e       0x7f lib/libbootloader.a(boot_spi_flash.c.obj)
 .comment       0x0000007e       0x7f lib/libbootloader.a(boot_debuguart.c.obj)
 .comment       0x0000007e       0x7f lib/libbootloader.a(boot_trace.c.obj)
 .comment       0x0000007e       0x7f lib/libbootloader.a(boot_vfs.c.obj)
 .comment       0x0000007e       0x7f lib/libbootloader.a(boot_irq.c.obj)
 .comment       0x0000007e       0x7f lib/libbootloader.a(boot_timer.c.obj)
 .comment       0x0000007e       0x7f lib/libbootloader.a(boot_mmu.c.obj)
 .comment       0x0000007e       0x7f lib/libbootloader.a(boot_override.c.obj)
 .comment       0x0000007e       0x7f lib/libbootloader.a(boot_adi_bus.c.obj)
 .comment       0x0000007e       0x7f lib/libbootloader.a(boot_log.c.obj)
 .comment       0x0000007e       0x7f lib/libhal.a(hal_clock_init.c.obj)
 .comment       0x0000007e       0x7f lib/libhal.a(hal_chip_8910.c.obj)
 .comment       0x0000007e       0x7f lib/libhal.a(hal_pmu_8910.c.obj)
 .comment       0x0000007e       0x7f lib/libhal.a(hal_efuse_8910.c.obj)
 .comment       0x0000007e       0x7f lib/libhal.a(hal_delay.c.obj)
 .comment       0x0000007e       0x7f lib/libhal.a(hal_reg_apply.c.obj)
 .comment       0x0000007e       0x7f lib/libhal.a(hal_chip_armv7a.c.obj)
 .comment       0x0000007e       0x7f lib/libhal.a(hal_hwspinlock.c.obj)
 .comment       0x0000007e       0x7f lib/libhal.a(hal_spi_flash.c.obj)
 .comment       0x0000007e       0x7f lib/libfupdate_core.a(fupdate_bootloader.c.obj)
 .comment       0x0000007e       0x7f lib/libfupdate_core.a(fupdate_common.c.obj)
 .comment       0x0000007e       0x7f lib/libfsmount.a(fs_mount.c.obj)
 .comment       0x0000007e       0x7f lib/libsffs_core.a(sffs.c.obj)
 .comment       0x0000007e       0x7f lib/libsffs_core.a(lzmar.c.obj)
 .comment       0x0000007e       0x7f lib/libsffs_core.a(LzmaEnc.c.obj)
 .comment       0x0000007e       0x7f lib/libsffs_core.a(LzFind.c.obj)
 .comment       0x0000007e       0x7f lib/libbdev.a(block_device.c.obj)
 .comment       0x0000007e       0x7f lib/libbdev.a(partition_block_device.c.obj)
 .comment       0x0000007e       0x7f lib/libbdev_core.a(flash_block_device_v2.c.obj)
 .comment       0x0000007e       0x7f lib/libboot_ex_ql.a(quec_boot_fota.c.obj)
 .comment       0x0000007e       0x7f lib/libhal.a(hal_lzma.c.obj)
 .comment       0x0000007e       0x79 ../../components/newlib/armca5/libc.a(lib_a-memcmp.o)
                                 0x7a (size before relaxing)
 .comment       0x000000f7       0x7a ../../components/newlib/armca5/libc.a(lib_a-memcpy-stub.o)
 .comment       0x000000f7       0x7a ../../components/newlib/armca5/libc.a(lib_a-memmove.o)
 .comment       0x000000f7       0x7a ../../components/newlib/armca5/libc.a(lib_a-memset.o)
 .comment       0x000000f7       0x7a ../../components/newlib/armca5/libc.a(lib_a-strchr.o)
 .comment       0x000000f7       0x7a ../../components/newlib/armca5/libc.a(lib_a-strcpy.o)
 .comment       0x000000f7       0x7a ../../components/newlib/armca5/libc.a(lib_a-strdup.o)
 .comment       0x000000f7       0x7a ../../components/newlib/armca5/libc.a(lib_a-strdup_r.o)
 .comment       0x000000f7       0x7a ../../components/newlib/armca5/libc.a(lib_a-strncmp.o)
 .comment       0x000000f7       0x7a ../../components/newlib/armca5/libc.a(lib_a-strrchr.o)
 .comment       0x000000f7       0x7a ../../components/newlib/armca5/libc.a(lib_a-getreent.o)
 .comment       0x000000f7       0x7f lib/libboot_calclib_crc.a(crc32.c.obj)
 .comment       0x000000f7       0x7f lib/libboot_ex_fat_rdonly.a(quec_boot_pff_rdonly.c.obj)
 .comment       0x000000f7       0x7f lib/libboot_ex_fat_rdonly.a(quec_boot_vfs.c.obj)
 .comment       0x000000f7       0x7f lib/libboot_ex_fat_rdonly.a(pff_rdonly.c.obj)
 .comment       0x000000f7       0x7f lib/libboot_ex_fat_rdonly.a(quec_boot_block_device.c.obj)
 .comment       0x000000f7       0x7f lib/libboot_ex_fat_rdonly.a(diskio.c.obj)
 .comment       0x000000f7       0x7f lib/libboot_ex_fat_rdonly.a(pff_basic.c.obj)
 .comment       0x000000f7       0x7f lib/libboot_ex_sdmmc.a(quec_boot_sdmmc.c.obj)
 .comment       0x000000f7       0x7f lib/libboot_ex_sdmmc.a(quec_boot_sd.c.obj)
 .comment       0x000000f7       0x7f lib/libboot_ex_sdmmc.a(quec_boot_ifc.c.obj)
 .comment       0x000000f7       0x7f lib/libboot_ex_spi6nor.a(quec_spi6_ext_norflash_cfg.c.obj)
 .comment       0x000000f7       0x7f lib/libboot_ex_spi6nor.a(quec_boot_pin_power_domain.c.obj)
 .comment       0x000000f7       0x7f lib/libboot_ex_ql_pin.a(quec_boot_pin_map.c.obj)
 .comment       0x000000f7       0x7f lib/libcalclib.a(decompress_unlzma.c.obj)
 .comment       0x000000f7       0x7f lib/libhal_prop.a(ql_hal_spi_flash_prop.c.obj)
 .comment       0x000000f7       0x7f lib/libfs_partinfo.a(ql_fs_part_info.c.obj)

.ARM.attributes
                0x00000000       0x3d
 *(.ARM.attributes)
 .ARM.attributes
                0x00000000       0x3d components/bootloader/CMakeFiles/boot2.dir/boot/boot2_start_8910.c.obj
 .ARM.attributes
                0x0000003d       0x3d lib/libbootloader.a(boot_platform_8910.c.obj)
 .ARM.attributes
                0x0000007a       0x3d lib/libbootloader.a(boot_secure.c.obj)
 .ARM.attributes
                0x000000b7       0x2b lib/libbootloader.a(boot_entry_v7a.S.obj)
 .ARM.attributes
                0x000000e2       0x3d lib/libbootloader.a(boot_sffs_port.c.obj)
 .ARM.attributes
                0x0000011f       0x3d lib/libbootloader.a(boot_delay.c.obj)
 .ARM.attributes
                0x0000015c       0x3d lib/libbootloader.a(boot_mem.c.obj)
 .ARM.attributes
                0x00000199       0x3d lib/libbootloader.a(boot_spi_flash.c.obj)
 .ARM.attributes
                0x000001d6       0x3d lib/libbootloader.a(boot_debuguart.c.obj)
 .ARM.attributes
                0x00000213       0x3d lib/libbootloader.a(boot_trace.c.obj)
 .ARM.attributes
                0x00000250       0x3d lib/libbootloader.a(boot_vfs.c.obj)
 .ARM.attributes
                0x0000028d       0x3d lib/libbootloader.a(boot_irq.c.obj)
 .ARM.attributes
                0x000002ca       0x3d lib/libbootloader.a(boot_timer.c.obj)
 .ARM.attributes
                0x00000307       0x3d lib/libbootloader.a(boot_mmu.c.obj)
 .ARM.attributes
                0x00000344       0x3d lib/libbootloader.a(boot_override.c.obj)
 .ARM.attributes
                0x00000381       0x3d lib/libbootloader.a(boot_adi_bus.c.obj)
 .ARM.attributes
                0x000003be       0x3d lib/libbootloader.a(boot_log.c.obj)
 .ARM.attributes
                0x000003fb       0x3d lib/libhal.a(hal_clock_init.c.obj)
 .ARM.attributes
                0x00000438       0x3d lib/libhal.a(hal_chip_8910.c.obj)
 .ARM.attributes
                0x00000475       0x3d lib/libhal.a(hal_pmu_8910.c.obj)
 .ARM.attributes
                0x000004b2       0x3d lib/libhal.a(hal_efuse_8910.c.obj)
 .ARM.attributes
                0x000004ef       0x3d lib/libhal.a(hal_delay.c.obj)
 .ARM.attributes
                0x0000052c       0x3d lib/libhal.a(hal_reg_apply.c.obj)
 .ARM.attributes
                0x00000569       0x3d lib/libhal.a(hal_chip_armv7a.c.obj)
 .ARM.attributes
                0x000005a6       0x3d lib/libhal.a(hal_hwspinlock.c.obj)
 .ARM.attributes
                0x000005e3       0x3d lib/libhal.a(hal_spi_flash.c.obj)
 .ARM.attributes
                0x00000620       0x3d lib/libfupdate_core.a(fupdate_bootloader.c.obj)
 .ARM.attributes
                0x0000065d       0x3d lib/libfupdate_core.a(fupdate_common.c.obj)
 .ARM.attributes
                0x0000069a       0x3d lib/libfsmount.a(fs_mount.c.obj)
 .ARM.attributes
                0x000006d7       0x3d lib/libsffs_core.a(sffs.c.obj)
 .ARM.attributes
                0x00000714       0x3d lib/libsffs_core.a(lzmar.c.obj)
 .ARM.attributes
                0x00000751       0x3d lib/libsffs_core.a(LzmaEnc.c.obj)
 .ARM.attributes
                0x0000078e       0x3d lib/libsffs_core.a(LzFind.c.obj)
 .ARM.attributes
                0x000007cb       0x3d lib/libbdev.a(block_device.c.obj)
 .ARM.attributes
                0x00000808       0x3d lib/libbdev.a(partition_block_device.c.obj)
 .ARM.attributes
                0x00000845       0x3d lib/libbdev_core.a(flash_block_device_v2.c.obj)
 .ARM.attributes
                0x00000882       0x3d lib/libboot_ex_ql.a(quec_boot_fota.c.obj)
 .ARM.attributes
                0x000008bf       0x3d lib/libhal.a(hal_lzma.c.obj)
 .ARM.attributes
                0x000008fc       0x37 ../../components/newlib/armca5/libc.a(lib_a-memcmp.o)
 .ARM.attributes
                0x00000933       0x37 ../../components/newlib/armca5/libc.a(lib_a-memcpy-stub.o)
 .ARM.attributes
                0x0000096a       0x37 ../../components/newlib/armca5/libc.a(lib_a-memmove.o)
 .ARM.attributes
                0x000009a1       0x37 ../../components/newlib/armca5/libc.a(lib_a-memset.o)
 .ARM.attributes
                0x000009d8       0x37 ../../components/newlib/armca5/libc.a(lib_a-strchr.o)
 .ARM.attributes
                0x00000a0f       0x37 ../../components/newlib/armca5/libc.a(lib_a-strcpy.o)
 .ARM.attributes
                0x00000a46       0x37 ../../components/newlib/armca5/libc.a(lib_a-strdup.o)
 .ARM.attributes
                0x00000a7d       0x37 ../../components/newlib/armca5/libc.a(lib_a-strdup_r.o)
 .ARM.attributes
                0x00000ab4       0x1d ../../components/newlib/armca5/libc.a(lib_a-strlen.o)
 .ARM.attributes
                0x00000ad1       0x37 ../../components/newlib/armca5/libc.a(lib_a-strncmp.o)
 .ARM.attributes
                0x00000b08       0x37 ../../components/newlib/armca5/libc.a(lib_a-strrchr.o)
 .ARM.attributes
                0x00000b3f       0x37 ../../components/newlib/armca5/libc.a(lib_a-getreent.o)
 .ARM.attributes
                0x00000b76       0x1b ../../prebuilts/win32/gcc-arm-none-eabi/bin/../lib/gcc/arm-none-eabi/7.2.1/thumb/v7-ar/fpv3/hard/libgcc.a(_udivsi3.o)
 .ARM.attributes
                0x00000b91       0x1b ../../prebuilts/win32/gcc-arm-none-eabi/bin/../lib/gcc/arm-none-eabi/7.2.1/thumb/v7-ar/fpv3/hard/libgcc.a(_divsi3.o)
 .ARM.attributes
                0x00000bac       0x1b ../../prebuilts/win32/gcc-arm-none-eabi/bin/../lib/gcc/arm-none-eabi/7.2.1/thumb/v7-ar/fpv3/hard/libgcc.a(_dvmd_tls.o)
 .ARM.attributes
                0x00000bc7       0x3d lib/libboot_calclib_crc.a(crc32.c.obj)
 .ARM.attributes
                0x00000c04       0x3d lib/libboot_ex_fat_rdonly.a(quec_boot_pff_rdonly.c.obj)
 .ARM.attributes
                0x00000c41       0x3d lib/libboot_ex_fat_rdonly.a(quec_boot_vfs.c.obj)
 .ARM.attributes
                0x00000c7e       0x3d lib/libboot_ex_fat_rdonly.a(pff_rdonly.c.obj)
 .ARM.attributes
                0x00000cbb       0x3d lib/libboot_ex_fat_rdonly.a(quec_boot_block_device.c.obj)
 .ARM.attributes
                0x00000cf8       0x3d lib/libboot_ex_fat_rdonly.a(diskio.c.obj)
 .ARM.attributes
                0x00000d35       0x3d lib/libboot_ex_fat_rdonly.a(pff_basic.c.obj)
 .ARM.attributes
                0x00000d72       0x3d lib/libboot_ex_sdmmc.a(quec_boot_sdmmc.c.obj)
 .ARM.attributes
                0x00000daf       0x3d lib/libboot_ex_sdmmc.a(quec_boot_sd.c.obj)
 .ARM.attributes
                0x00000dec       0x3d lib/libboot_ex_sdmmc.a(quec_boot_ifc.c.obj)
 .ARM.attributes
                0x00000e29       0x3d lib/libboot_ex_spi6nor.a(quec_spi6_ext_norflash_cfg.c.obj)
 .ARM.attributes
                0x00000e66       0x3d lib/libboot_ex_spi6nor.a(quec_boot_pin_power_domain.c.obj)
 .ARM.attributes
                0x00000ea3       0x3d lib/libboot_ex_ql_pin.a(quec_boot_pin_map.c.obj)
 .ARM.attributes
                0x00000ee0       0x3d lib/libcalclib.a(decompress_unlzma.c.obj)
 .ARM.attributes
                0x00000f1d       0x3d lib/libhal_prop.a(ql_hal_spi_flash_prop.c.obj)
 .ARM.attributes
                0x00000f5a       0x3d lib/libfs_partinfo.a(ql_fs_part_info.c.obj)
 .ARM.attributes
                0x00000f97       0x2b lib/libfs_partinfo.a(partinfo.bin.S.obj)

.iplt           0x00000000        0x0
 *(.iplt)
 .iplt          0x00000000        0x0 components/bootloader/CMakeFiles/boot2.dir/boot/boot2_start_8910.c.obj

.igot.plt       0x00000000        0x0
 *(.igot.plt)
 .igot.plt      0x00000000        0x0 components/bootloader/CMakeFiles/boot2.dir/boot/boot2_start_8910.c.obj

.rel.dyn        0x00000000        0x0
 *(.rel.dyn)
 .rel.iplt      0x00000000        0x0 components/bootloader/CMakeFiles/boot2.dir/boot/boot2_start_8910.c.obj

.glue_7         0x00000000        0x0
 *(.glue_7)
 .glue_7        0x00000000        0x0 linker stubs

.glue_7t        0x00000000        0x0
 *(.glue_7t)
 .glue_7t       0x00000000        0x0 linker stubs

.vfp11_veneer   0x00000000        0x0
 *(.vfp11_veneer)
 .vfp11_veneer  0x00000000        0x0 linker stubs

.v4_bx          0x00000000        0x0
 *(.v4_bx)
 .v4_bx         0x00000000        0x0 linker stubs

/DISCARD/
 *(.ARM.exidx*)
 *(.gnu.linkonce.armexidx*)
OUTPUT(hex\boot2.elf elf32-littlearm)

.debug_info     0x00000000    0x61e06
 .debug_info    0x00000000     0x1d26 components/bootloader/CMakeFiles/boot2.dir/boot/boot2_start_8910.c.obj
 .debug_info    0x00001d26     0x26a6 lib/libbootloader.a(boot_platform_8910.c.obj)
 .debug_info    0x000043cc     0x1ba9 lib/libbootloader.a(boot_secure.c.obj)
 .debug_info    0x00005f75       0x26 lib/libbootloader.a(boot_entry_v7a.S.obj)
 .debug_info    0x00005f9b      0x409 lib/libbootloader.a(boot_sffs_port.c.obj)
 .debug_info    0x000063a4      0x211 lib/libbootloader.a(boot_delay.c.obj)
 .debug_info    0x000065b5      0x97f lib/libbootloader.a(boot_mem.c.obj)
 .debug_info    0x00006f34     0x192f lib/libbootloader.a(boot_spi_flash.c.obj)
 .debug_info    0x00008863      0x601 lib/libbootloader.a(boot_debuguart.c.obj)
 .debug_info    0x00008e64      0x1f8 lib/libbootloader.a(boot_trace.c.obj)
 .debug_info    0x0000905c     0x2ded lib/libbootloader.a(boot_vfs.c.obj)
 .debug_info    0x0000be49     0x14d5 lib/libbootloader.a(boot_irq.c.obj)
 .debug_info    0x0000d31e      0xe69 lib/libbootloader.a(boot_timer.c.obj)
 .debug_info    0x0000e187      0xe75 lib/libbootloader.a(boot_mmu.c.obj)
 .debug_info    0x0000effc      0x4cd lib/libbootloader.a(boot_override.c.obj)
 .debug_info    0x0000f4c9      0x7b2 lib/libbootloader.a(boot_adi_bus.c.obj)
 .debug_info    0x0000fc7b     0x2fd8 lib/libbootloader.a(boot_log.c.obj)
 .debug_info    0x00012c53     0x7820 lib/libhal.a(hal_clock_init.c.obj)
 .debug_info    0x0001a473     0x389c lib/libhal.a(hal_chip_8910.c.obj)
 .debug_info    0x0001dd0f     0x7ab2 lib/libhal.a(hal_pmu_8910.c.obj)
 .debug_info    0x000257c1     0x1e65 lib/libhal.a(hal_efuse_8910.c.obj)
 .debug_info    0x00027626      0x3c1 lib/libhal.a(hal_delay.c.obj)
 .debug_info    0x000279e7      0x1ce lib/libhal.a(hal_reg_apply.c.obj)
 .debug_info    0x00027bb5      0xd13 lib/libhal.a(hal_chip_armv7a.c.obj)
 .debug_info    0x000288c8      0x68b lib/libhal.a(hal_hwspinlock.c.obj)
 .debug_info    0x00028f53     0x45aa lib/libhal.a(hal_spi_flash.c.obj)
 .debug_info    0x0002d4fd     0x34f2 lib/libfupdate_core.a(fupdate_bootloader.c.obj)
 .debug_info    0x000309ef     0x1bf4 lib/libfupdate_core.a(fupdate_common.c.obj)
 .debug_info    0x000325e3     0x2314 lib/libfsmount.a(fs_mount.c.obj)
 .debug_info    0x000348f7     0x7551 lib/libsffs_core.a(sffs.c.obj)
 .debug_info    0x0003be48     0x1509 lib/libsffs_core.a(lzmar.c.obj)
 .debug_info    0x0003d351     0x5362 lib/libsffs_core.a(LzmaEnc.c.obj)
 .debug_info    0x000426b3     0x22a5 lib/libsffs_core.a(LzFind.c.obj)
 .debug_info    0x00044958      0xc72 lib/libbdev.a(block_device.c.obj)
 .debug_info    0x000455ca      0xd32 lib/libbdev.a(partition_block_device.c.obj)
 .debug_info    0x000462fc     0x319c lib/libbdev_core.a(flash_block_device_v2.c.obj)
 .debug_info    0x00049498     0x2068 lib/libboot_ex_ql.a(quec_boot_fota.c.obj)
 .debug_info    0x0004b500     0x29c8 lib/libhal.a(hal_lzma.c.obj)
 .debug_info    0x0004dec8      0x5f5 lib/libboot_calclib_crc.a(crc32.c.obj)
 .debug_info    0x0004e4bd     0x114d lib/libboot_ex_fat_rdonly.a(quec_boot_pff_rdonly.c.obj)
 .debug_info    0x0004f60a      0xed8 lib/libboot_ex_fat_rdonly.a(quec_boot_vfs.c.obj)
 .debug_info    0x000504e2      0xc95 lib/libboot_ex_fat_rdonly.a(pff_rdonly.c.obj)
 .debug_info    0x00051177      0x20a lib/libboot_ex_fat_rdonly.a(quec_boot_block_device.c.obj)
 .debug_info    0x00051381      0x19d lib/libboot_ex_fat_rdonly.a(diskio.c.obj)
 .debug_info    0x0005151e      0xa8e lib/libboot_ex_fat_rdonly.a(pff_basic.c.obj)
 .debug_info    0x00051fac     0x2930 lib/libboot_ex_sdmmc.a(quec_boot_sdmmc.c.obj)
 .debug_info    0x000548dc     0x3f52 lib/libboot_ex_sdmmc.a(quec_boot_sd.c.obj)
 .debug_info    0x0005882e     0x121f lib/libboot_ex_sdmmc.a(quec_boot_ifc.c.obj)
 .debug_info    0x00059a4d     0x21af lib/libboot_ex_spi6nor.a(quec_spi6_ext_norflash_cfg.c.obj)
 .debug_info    0x0005bbfc     0x1438 lib/libboot_ex_spi6nor.a(quec_boot_pin_power_domain.c.obj)
 .debug_info    0x0005d034     0x11d2 lib/libboot_ex_ql_pin.a(quec_boot_pin_map.c.obj)
 .debug_info    0x0005e206     0x1d2e lib/libcalclib.a(decompress_unlzma.c.obj)
 .debug_info    0x0005ff34     0x15e0 lib/libhal_prop.a(ql_hal_spi_flash_prop.c.obj)
 .debug_info    0x00061514      0x8f2 lib/libfs_partinfo.a(ql_fs_part_info.c.obj)

.debug_abbrev   0x00000000     0xa973
 .debug_abbrev  0x00000000      0x464 components/bootloader/CMakeFiles/boot2.dir/boot/boot2_start_8910.c.obj
 .debug_abbrev  0x00000464      0x2b0 lib/libbootloader.a(boot_platform_8910.c.obj)
 .debug_abbrev  0x00000714      0x4d4 lib/libbootloader.a(boot_secure.c.obj)
 .debug_abbrev  0x00000be8       0x14 lib/libbootloader.a(boot_entry_v7a.S.obj)
 .debug_abbrev  0x00000bfc       0xc9 lib/libbootloader.a(boot_sffs_port.c.obj)
 .debug_abbrev  0x00000cc5       0xf1 lib/libbootloader.a(boot_delay.c.obj)
 .debug_abbrev  0x00000db6      0x2fe lib/libbootloader.a(boot_mem.c.obj)
 .debug_abbrev  0x000010b4      0x420 lib/libbootloader.a(boot_spi_flash.c.obj)
 .debug_abbrev  0x000014d4      0x159 lib/libbootloader.a(boot_debuguart.c.obj)
 .debug_abbrev  0x0000162d      0x116 lib/libbootloader.a(boot_trace.c.obj)
 .debug_abbrev  0x00001743      0x4c2 lib/libbootloader.a(boot_vfs.c.obj)
 .debug_abbrev  0x00001c05      0x3db lib/libbootloader.a(boot_irq.c.obj)
 .debug_abbrev  0x00001fe0      0x273 lib/libbootloader.a(boot_timer.c.obj)
 .debug_abbrev  0x00002253      0x23d lib/libbootloader.a(boot_mmu.c.obj)
 .debug_abbrev  0x00002490      0x208 lib/libbootloader.a(boot_override.c.obj)
 .debug_abbrev  0x00002698      0x1b3 lib/libbootloader.a(boot_adi_bus.c.obj)
 .debug_abbrev  0x0000284b      0x4a8 lib/libbootloader.a(boot_log.c.obj)
 .debug_abbrev  0x00002cf3      0x3a1 lib/libhal.a(hal_clock_init.c.obj)
 .debug_abbrev  0x00003094      0x46a lib/libhal.a(hal_chip_8910.c.obj)
 .debug_abbrev  0x000034fe      0x53c lib/libhal.a(hal_pmu_8910.c.obj)
 .debug_abbrev  0x00003a3a      0x33d lib/libhal.a(hal_efuse_8910.c.obj)
 .debug_abbrev  0x00003d77      0x17c lib/libhal.a(hal_delay.c.obj)
 .debug_abbrev  0x00003ef3      0x12e lib/libhal.a(hal_reg_apply.c.obj)
 .debug_abbrev  0x00004021      0x16f lib/libhal.a(hal_chip_armv7a.c.obj)
 .debug_abbrev  0x00004190      0x174 lib/libhal.a(hal_hwspinlock.c.obj)
 .debug_abbrev  0x00004304      0x57b lib/libhal.a(hal_spi_flash.c.obj)
 .debug_abbrev  0x0000487f      0x4e5 lib/libfupdate_core.a(fupdate_bootloader.c.obj)
 .debug_abbrev  0x00004d64      0x3f4 lib/libfupdate_core.a(fupdate_common.c.obj)
 .debug_abbrev  0x00005158      0x4ad lib/libfsmount.a(fs_mount.c.obj)
 .debug_abbrev  0x00005605      0x5a7 lib/libsffs_core.a(sffs.c.obj)
 .debug_abbrev  0x00005bac      0x359 lib/libsffs_core.a(lzmar.c.obj)
 .debug_abbrev  0x00005f05      0x5a6 lib/libsffs_core.a(LzmaEnc.c.obj)
 .debug_abbrev  0x000064ab      0x4cb lib/libsffs_core.a(LzFind.c.obj)
 .debug_abbrev  0x00006976      0x23d lib/libbdev.a(block_device.c.obj)
 .debug_abbrev  0x00006bb3      0x28f lib/libbdev.a(partition_block_device.c.obj)
 .debug_abbrev  0x00006e42      0x519 lib/libbdev_core.a(flash_block_device_v2.c.obj)
 .debug_abbrev  0x0000735b      0x3fc lib/libboot_ex_ql.a(quec_boot_fota.c.obj)
 .debug_abbrev  0x00007757      0x3a5 lib/libhal.a(hal_lzma.c.obj)
 .debug_abbrev  0x00007afc      0x1c4 lib/libboot_calclib_crc.a(crc32.c.obj)
 .debug_abbrev  0x00007cc0      0x33a lib/libboot_ex_fat_rdonly.a(quec_boot_pff_rdonly.c.obj)
 .debug_abbrev  0x00007ffa      0x233 lib/libboot_ex_fat_rdonly.a(quec_boot_vfs.c.obj)
 .debug_abbrev  0x0000822d      0x2ca lib/libboot_ex_fat_rdonly.a(pff_rdonly.c.obj)
 .debug_abbrev  0x000084f7      0x116 lib/libboot_ex_fat_rdonly.a(quec_boot_block_device.c.obj)
 .debug_abbrev  0x0000860d       0xcc lib/libboot_ex_fat_rdonly.a(diskio.c.obj)
 .debug_abbrev  0x000086d9      0x295 lib/libboot_ex_fat_rdonly.a(pff_basic.c.obj)
 .debug_abbrev  0x0000896e      0x3d8 lib/libboot_ex_sdmmc.a(quec_boot_sdmmc.c.obj)
 .debug_abbrev  0x00008d46      0x646 lib/libboot_ex_sdmmc.a(quec_boot_sd.c.obj)
 .debug_abbrev  0x0000938c      0x3d8 lib/libboot_ex_sdmmc.a(quec_boot_ifc.c.obj)
 .debug_abbrev  0x00009764      0x476 lib/libboot_ex_spi6nor.a(quec_spi6_ext_norflash_cfg.c.obj)
 .debug_abbrev  0x00009bda      0x2b7 lib/libboot_ex_spi6nor.a(quec_boot_pin_power_domain.c.obj)
 .debug_abbrev  0x00009e91      0x1f6 lib/libboot_ex_ql_pin.a(quec_boot_pin_map.c.obj)
 .debug_abbrev  0x0000a087      0x4aa lib/libcalclib.a(decompress_unlzma.c.obj)
 .debug_abbrev  0x0000a531      0x283 lib/libhal_prop.a(ql_hal_spi_flash_prop.c.obj)
 .debug_abbrev  0x0000a7b4      0x1bf lib/libfs_partinfo.a(ql_fs_part_info.c.obj)

.debug_loc      0x00000000    0x26555
 .debug_loc     0x00000000      0x1e2 components/bootloader/CMakeFiles/boot2.dir/boot/boot2_start_8910.c.obj
 .debug_loc     0x000001e2      0x143 lib/libbootloader.a(boot_platform_8910.c.obj)
 .debug_loc     0x00000325      0x691 lib/libbootloader.a(boot_secure.c.obj)
 .debug_loc     0x000009b6      0x339 lib/libbootloader.a(boot_sffs_port.c.obj)
 .debug_loc     0x00000cef       0x42 lib/libbootloader.a(boot_delay.c.obj)
 .debug_loc     0x00000d31      0x94c lib/libbootloader.a(boot_mem.c.obj)
 .debug_loc     0x0000167d      0xb4e lib/libbootloader.a(boot_spi_flash.c.obj)
 .debug_loc     0x000021cb      0x1b5 lib/libbootloader.a(boot_debuguart.c.obj)
 .debug_loc     0x00002380       0xf8 lib/libbootloader.a(boot_trace.c.obj)
 .debug_loc     0x00002478     0x12ae lib/libbootloader.a(boot_vfs.c.obj)
 .debug_loc     0x00003726      0x2be lib/libbootloader.a(boot_irq.c.obj)
 .debug_loc     0x000039e4       0xdb lib/libbootloader.a(boot_timer.c.obj)
 .debug_loc     0x00003abf      0xc13 lib/libbootloader.a(boot_mmu.c.obj)
 .debug_loc     0x000046d2       0xd4 lib/libbootloader.a(boot_override.c.obj)
 .debug_loc     0x000047a6      0x2ad lib/libbootloader.a(boot_adi_bus.c.obj)
 .debug_loc     0x00004a53     0x1e62 lib/libbootloader.a(boot_log.c.obj)
 .debug_loc     0x000068b5      0x560 lib/libhal.a(hal_clock_init.c.obj)
 .debug_loc     0x00006e15      0xf33 lib/libhal.a(hal_chip_8910.c.obj)
 .debug_loc     0x00007d48      0xd94 lib/libhal.a(hal_pmu_8910.c.obj)
 .debug_loc     0x00008adc      0x2d3 lib/libhal.a(hal_efuse_8910.c.obj)
 .debug_loc     0x00008daf       0xdc lib/libhal.a(hal_delay.c.obj)
 .debug_loc     0x00008e8b       0xbe lib/libhal.a(hal_reg_apply.c.obj)
 .debug_loc     0x00008f49      0x70a lib/libhal.a(hal_chip_armv7a.c.obj)
 .debug_loc     0x00009653      0x127 lib/libhal.a(hal_hwspinlock.c.obj)
 .debug_loc     0x0000977a     0x2d0e lib/libhal.a(hal_spi_flash.c.obj)
 .debug_loc     0x0000c488     0x1ddf lib/libfupdate_core.a(fupdate_bootloader.c.obj)
 .debug_loc     0x0000e267      0xdb5 lib/libfupdate_core.a(fupdate_common.c.obj)
 .debug_loc     0x0000f01c      0xf23 lib/libfsmount.a(fs_mount.c.obj)
 .debug_loc     0x0000ff3f     0x5840 lib/libsffs_core.a(sffs.c.obj)
 .debug_loc     0x0001577f      0xb6d lib/libsffs_core.a(lzmar.c.obj)
 .debug_loc     0x000162ec     0x4894 lib/libsffs_core.a(LzmaEnc.c.obj)
 .debug_loc     0x0001ab80     0x28df lib/libsffs_core.a(LzFind.c.obj)
 .debug_loc     0x0001d45f      0x1da lib/libbdev.a(block_device.c.obj)
 .debug_loc     0x0001d639      0x277 lib/libbdev.a(partition_block_device.c.obj)
 .debug_loc     0x0001d8b0     0x1f41 lib/libbdev_core.a(flash_block_device_v2.c.obj)
 .debug_loc     0x0001f7f1      0x7da lib/libboot_ex_ql.a(quec_boot_fota.c.obj)
 .debug_loc     0x0001ffcb      0x963 lib/libhal.a(hal_lzma.c.obj)
 .debug_loc     0x0002092e      0x93a lib/libboot_calclib_crc.a(crc32.c.obj)
 .debug_loc     0x00021268      0x455 lib/libboot_ex_fat_rdonly.a(quec_boot_pff_rdonly.c.obj)
 .debug_loc     0x000216bd       0xd1 lib/libboot_ex_fat_rdonly.a(quec_boot_vfs.c.obj)
 .debug_loc     0x0002178e      0xbf0 lib/libboot_ex_fat_rdonly.a(pff_rdonly.c.obj)
 .debug_loc     0x0002237e      0x169 lib/libboot_ex_fat_rdonly.a(quec_boot_block_device.c.obj)
 .debug_loc     0x000224e7       0x84 lib/libboot_ex_fat_rdonly.a(diskio.c.obj)
 .debug_loc     0x0002256b      0xa3c lib/libboot_ex_fat_rdonly.a(pff_basic.c.obj)
 .debug_loc     0x00022fa7      0x114 lib/libboot_ex_sdmmc.a(quec_boot_sdmmc.c.obj)
 .debug_loc     0x000230bb      0xc47 lib/libboot_ex_sdmmc.a(quec_boot_sd.c.obj)
 .debug_loc     0x00023d02      0x2f1 lib/libboot_ex_sdmmc.a(quec_boot_ifc.c.obj)
 .debug_loc     0x00023ff3      0x2c5 lib/libboot_ex_spi6nor.a(quec_spi6_ext_norflash_cfg.c.obj)
 .debug_loc     0x000242b8      0x2e1 lib/libboot_ex_spi6nor.a(quec_boot_pin_power_domain.c.obj)
 .debug_loc     0x00024599     0x1f4e lib/libcalclib.a(decompress_unlzma.c.obj)
 .debug_loc     0x000264e7       0x4d lib/libhal_prop.a(ql_hal_spi_flash_prop.c.obj)
 .debug_loc     0x00026534       0x21 lib/libfs_partinfo.a(ql_fs_part_info.c.obj)

.debug_aranges  0x00000000     0x18f0
 .debug_aranges
                0x00000000       0x38 components/bootloader/CMakeFiles/boot2.dir/boot/boot2_start_8910.c.obj
 .debug_aranges
                0x00000038       0x58 lib/libbootloader.a(boot_platform_8910.c.obj)
 .debug_aranges
                0x00000090       0x68 lib/libbootloader.a(boot_secure.c.obj)
 .debug_aranges
                0x000000f8       0x20 lib/libbootloader.a(boot_entry_v7a.S.obj)
 .debug_aranges
                0x00000118       0x50 lib/libbootloader.a(boot_sffs_port.c.obj)
 .debug_aranges
                0x00000168       0x38 lib/libbootloader.a(boot_delay.c.obj)
 .debug_aranges
                0x000001a0       0x98 lib/libbootloader.a(boot_mem.c.obj)
 .debug_aranges
                0x00000238       0xb0 lib/libbootloader.a(boot_spi_flash.c.obj)
 .debug_aranges
                0x000002e8       0x30 lib/libbootloader.a(boot_debuguart.c.obj)
 .debug_aranges
                0x00000318       0x30 lib/libbootloader.a(boot_trace.c.obj)
 .debug_aranges
                0x00000348      0x118 lib/libbootloader.a(boot_vfs.c.obj)
 .debug_aranges
                0x00000460       0x50 lib/libbootloader.a(boot_irq.c.obj)
 .debug_aranges
                0x000004b0       0x30 lib/libbootloader.a(boot_timer.c.obj)
 .debug_aranges
                0x000004e0       0x28 lib/libbootloader.a(boot_mmu.c.obj)
 .debug_aranges
                0x00000508       0x80 lib/libbootloader.a(boot_override.c.obj)
 .debug_aranges
                0x00000588       0x48 lib/libbootloader.a(boot_adi_bus.c.obj)
 .debug_aranges
                0x000005d0      0x130 lib/libbootloader.a(boot_log.c.obj)
 .debug_aranges
                0x00000700       0x70 lib/libhal.a(hal_clock_init.c.obj)
 .debug_aranges
                0x00000770       0xb0 lib/libhal.a(hal_chip_8910.c.obj)
 .debug_aranges
                0x00000820       0x98 lib/libhal.a(hal_pmu_8910.c.obj)
 .debug_aranges
                0x000008b8       0x58 lib/libhal.a(hal_efuse_8910.c.obj)
 .debug_aranges
                0x00000910       0x38 lib/libhal.a(hal_delay.c.obj)
 .debug_aranges
                0x00000948       0x28 lib/libhal.a(hal_reg_apply.c.obj)
 .debug_aranges
                0x00000970       0x20 lib/libhal.a(hal_chip_armv7a.c.obj)
 .debug_aranges
                0x00000990       0x40 lib/libhal.a(hal_hwspinlock.c.obj)
 .debug_aranges
                0x000009d0      0x180 lib/libhal.a(hal_spi_flash.c.obj)
 .debug_aranges
                0x00000b50       0x60 lib/libfupdate_core.a(fupdate_bootloader.c.obj)
 .debug_aranges
                0x00000bb0       0x90 lib/libfupdate_core.a(fupdate_common.c.obj)
 .debug_aranges
                0x00000c40       0xb8 lib/libfsmount.a(fs_mount.c.obj)
 .debug_aranges
                0x00000cf8      0x200 lib/libsffs_core.a(sffs.c.obj)
 .debug_aranges
                0x00000ef8       0x50 lib/libsffs_core.a(lzmar.c.obj)
 .debug_aranges
                0x00000f48      0x1a8 lib/libsffs_core.a(LzmaEnc.c.obj)
 .debug_aranges
                0x000010f0      0x118 lib/libsffs_core.a(LzFind.c.obj)
 .debug_aranges
                0x00001208       0x40 lib/libbdev.a(block_device.c.obj)
 .debug_aranges
                0x00001248       0x40 lib/libbdev.a(partition_block_device.c.obj)
 .debug_aranges
                0x00001288       0xb0 lib/libbdev_core.a(flash_block_device_v2.c.obj)
 .debug_aranges
                0x00001338       0x50 lib/libboot_ex_ql.a(quec_boot_fota.c.obj)
 .debug_aranges
                0x00001388       0x50 lib/libhal.a(hal_lzma.c.obj)
 .debug_aranges
                0x000013d8       0x88 lib/libboot_calclib_crc.a(crc32.c.obj)
 .debug_aranges
                0x00001460       0x70 lib/libboot_ex_fat_rdonly.a(quec_boot_pff_rdonly.c.obj)
 .debug_aranges
                0x000014d0       0x20 lib/libboot_ex_fat_rdonly.a(quec_boot_vfs.c.obj)
 .debug_aranges
                0x000014f0       0x40 lib/libboot_ex_fat_rdonly.a(pff_rdonly.c.obj)
 .debug_aranges
                0x00001530       0x28 lib/libboot_ex_fat_rdonly.a(quec_boot_block_device.c.obj)
 .debug_aranges
                0x00001558       0x28 lib/libboot_ex_fat_rdonly.a(diskio.c.obj)
 .debug_aranges
                0x00001580       0x98 lib/libboot_ex_fat_rdonly.a(pff_basic.c.obj)
 .debug_aranges
                0x00001618       0x30 lib/libboot_ex_sdmmc.a(quec_boot_sdmmc.c.obj)
 .debug_aranges
                0x00001648       0x78 lib/libboot_ex_sdmmc.a(quec_boot_sd.c.obj)
 .debug_aranges
                0x000016c0       0x88 lib/libboot_ex_sdmmc.a(quec_boot_ifc.c.obj)
 .debug_aranges
                0x00001748       0x88 lib/libboot_ex_spi6nor.a(quec_spi6_ext_norflash_cfg.c.obj)
 .debug_aranges
                0x000017d0       0x38 lib/libboot_ex_spi6nor.a(quec_boot_pin_power_domain.c.obj)
 .debug_aranges
                0x00001808       0x18 lib/libboot_ex_ql_pin.a(quec_boot_pin_map.c.obj)
 .debug_aranges
                0x00001820       0x88 lib/libcalclib.a(decompress_unlzma.c.obj)
 .debug_aranges
                0x000018a8       0x28 lib/libhal_prop.a(ql_hal_spi_flash_prop.c.obj)
 .debug_aranges
                0x000018d0       0x20 lib/libfs_partinfo.a(ql_fs_part_info.c.obj)

.debug_ranges   0x00000000     0x5638
 .debug_ranges  0x00000000       0x78 components/bootloader/CMakeFiles/boot2.dir/boot/boot2_start_8910.c.obj
 .debug_ranges  0x00000078       0x60 lib/libbootloader.a(boot_platform_8910.c.obj)
 .debug_ranges  0x000000d8      0x128 lib/libbootloader.a(boot_secure.c.obj)
 .debug_ranges  0x00000200       0x40 lib/libbootloader.a(boot_sffs_port.c.obj)
 .debug_ranges  0x00000240       0x28 lib/libbootloader.a(boot_delay.c.obj)
 .debug_ranges  0x00000268      0x158 lib/libbootloader.a(boot_mem.c.obj)
 .debug_ranges  0x000003c0      0x1b0 lib/libbootloader.a(boot_spi_flash.c.obj)
 .debug_ranges  0x00000570       0x50 lib/libbootloader.a(boot_debuguart.c.obj)
 .debug_ranges  0x000005c0       0x38 lib/libbootloader.a(boot_trace.c.obj)
 .debug_ranges  0x000005f8      0x1e8 lib/libbootloader.a(boot_vfs.c.obj)
 .debug_ranges  0x000007e0      0x148 lib/libbootloader.a(boot_irq.c.obj)
 .debug_ranges  0x00000928       0x20 lib/libbootloader.a(boot_timer.c.obj)
 .debug_ranges  0x00000948       0xe8 lib/libbootloader.a(boot_mmu.c.obj)
 .debug_ranges  0x00000a30       0x70 lib/libbootloader.a(boot_override.c.obj)
 .debug_ranges  0x00000aa0       0x38 lib/libbootloader.a(boot_adi_bus.c.obj)
 .debug_ranges  0x00000ad8      0x5b8 lib/libbootloader.a(boot_log.c.obj)
 .debug_ranges  0x00001090       0xb0 lib/libhal.a(hal_clock_init.c.obj)
 .debug_ranges  0x00001140      0x270 lib/libhal.a(hal_chip_8910.c.obj)
 .debug_ranges  0x000013b0      0x170 lib/libhal.a(hal_pmu_8910.c.obj)
 .debug_ranges  0x00001520       0x48 lib/libhal.a(hal_efuse_8910.c.obj)
 .debug_ranges  0x00001568       0x28 lib/libhal.a(hal_delay.c.obj)
 .debug_ranges  0x00001590       0x18 lib/libhal.a(hal_reg_apply.c.obj)
 .debug_ranges  0x000015a8       0x10 lib/libhal.a(hal_chip_armv7a.c.obj)
 .debug_ranges  0x000015b8       0x48 lib/libhal.a(hal_hwspinlock.c.obj)
 .debug_ranges  0x00001600      0x5c0 lib/libhal.a(hal_spi_flash.c.obj)
 .debug_ranges  0x00001bc0      0x6b0 lib/libfupdate_core.a(fupdate_bootloader.c.obj)
 .debug_ranges  0x00002270      0x150 lib/libfupdate_core.a(fupdate_common.c.obj)
 .debug_ranges  0x000023c0      0x320 lib/libfsmount.a(fs_mount.c.obj)
 .debug_ranges  0x000026e0      0xd90 lib/libsffs_core.a(sffs.c.obj)
 .debug_ranges  0x00003470      0x1c8 lib/libsffs_core.a(lzmar.c.obj)
 .debug_ranges  0x00003638      0xa18 lib/libsffs_core.a(LzmaEnc.c.obj)
 .debug_ranges  0x00004050      0x460 lib/libsffs_core.a(LzFind.c.obj)
 .debug_ranges  0x000044b0       0x30 lib/libbdev.a(block_device.c.obj)
 .debug_ranges  0x000044e0       0x30 lib/libbdev.a(partition_block_device.c.obj)
 .debug_ranges  0x00004510      0x658 lib/libbdev_core.a(flash_block_device_v2.c.obj)
 .debug_ranges  0x00004b68       0x98 lib/libboot_ex_ql.a(quec_boot_fota.c.obj)
 .debug_ranges  0x00004c00       0xa8 lib/libhal.a(hal_lzma.c.obj)
 .debug_ranges  0x00004ca8       0x90 lib/libboot_calclib_crc.a(crc32.c.obj)
 .debug_ranges  0x00004d38       0x60 lib/libboot_ex_fat_rdonly.a(quec_boot_pff_rdonly.c.obj)
 .debug_ranges  0x00004d98       0x10 lib/libboot_ex_fat_rdonly.a(quec_boot_vfs.c.obj)
 .debug_ranges  0x00004da8       0x98 lib/libboot_ex_fat_rdonly.a(pff_rdonly.c.obj)
 .debug_ranges  0x00004e40       0x18 lib/libboot_ex_fat_rdonly.a(quec_boot_block_device.c.obj)
 .debug_ranges  0x00004e58       0x18 lib/libboot_ex_fat_rdonly.a(diskio.c.obj)
 .debug_ranges  0x00004e70       0x88 lib/libboot_ex_fat_rdonly.a(pff_basic.c.obj)
 .debug_ranges  0x00004ef8       0x20 lib/libboot_ex_sdmmc.a(quec_boot_sdmmc.c.obj)
 .debug_ranges  0x00004f18      0x280 lib/libboot_ex_sdmmc.a(quec_boot_sd.c.obj)
 .debug_ranges  0x00005198       0x90 lib/libboot_ex_sdmmc.a(quec_boot_ifc.c.obj)
 .debug_ranges  0x00005228      0x100 lib/libboot_ex_spi6nor.a(quec_spi6_ext_norflash_cfg.c.obj)
 .debug_ranges  0x00005328       0x70 lib/libboot_ex_spi6nor.a(quec_boot_pin_power_domain.c.obj)
 .debug_ranges  0x00005398      0x278 lib/libcalclib.a(decompress_unlzma.c.obj)
 .debug_ranges  0x00005610       0x18 lib/libhal_prop.a(ql_hal_spi_flash_prop.c.obj)
 .debug_ranges  0x00005628       0x10 lib/libfs_partinfo.a(ql_fs_part_info.c.obj)

.debug_line     0x00000000     0xecd2
 .debug_line    0x00000000      0x4d0 components/bootloader/CMakeFiles/boot2.dir/boot/boot2_start_8910.c.obj
 .debug_line    0x000004d0      0x2a5 lib/libbootloader.a(boot_platform_8910.c.obj)
 .debug_line    0x00000775      0x3b0 lib/libbootloader.a(boot_secure.c.obj)
 .debug_line    0x00000b25      0x109 lib/libbootloader.a(boot_entry_v7a.S.obj)
 .debug_line    0x00000c2e      0x1cf lib/libbootloader.a(boot_sffs_port.c.obj)
 .debug_line    0x00000dfd      0x18f lib/libbootloader.a(boot_delay.c.obj)
 .debug_line    0x00000f8c      0x2be lib/libbootloader.a(boot_mem.c.obj)
 .debug_line    0x0000124a      0x556 lib/libbootloader.a(boot_spi_flash.c.obj)
 .debug_line    0x000017a0      0x1f0 lib/libbootloader.a(boot_debuguart.c.obj)
 .debug_line    0x00001990      0x17b lib/libbootloader.a(boot_trace.c.obj)
 .debug_line    0x00001b0b      0x814 lib/libbootloader.a(boot_vfs.c.obj)
 .debug_line    0x0000231f      0x386 lib/libbootloader.a(boot_irq.c.obj)
 .debug_line    0x000026a5      0x244 lib/libbootloader.a(boot_timer.c.obj)
 .debug_line    0x000028e9      0x32a lib/libbootloader.a(boot_mmu.c.obj)
 .debug_line    0x00002c13      0x1ba lib/libbootloader.a(boot_override.c.obj)
 .debug_line    0x00002dcd      0x233 lib/libbootloader.a(boot_adi_bus.c.obj)
 .debug_line    0x00003000      0x8c6 lib/libbootloader.a(boot_log.c.obj)
 .debug_line    0x000038c6      0x50e lib/libhal.a(hal_clock_init.c.obj)
 .debug_line    0x00003dd4      0x719 lib/libhal.a(hal_chip_8910.c.obj)
 .debug_line    0x000044ed      0x6e9 lib/libhal.a(hal_pmu_8910.c.obj)
 .debug_line    0x00004bd6      0x32b lib/libhal.a(hal_efuse_8910.c.obj)
 .debug_line    0x00004f01      0x164 lib/libhal.a(hal_delay.c.obj)
 .debug_line    0x00005065      0x1ad lib/libhal.a(hal_reg_apply.c.obj)
 .debug_line    0x00005212      0x166 lib/libhal.a(hal_chip_armv7a.c.obj)
 .debug_line    0x00005378      0x18e lib/libhal.a(hal_hwspinlock.c.obj)
 .debug_line    0x00005506      0xab4 lib/libhal.a(hal_spi_flash.c.obj)
 .debug_line    0x00005fba      0x7fc lib/libfupdate_core.a(fupdate_bootloader.c.obj)
 .debug_line    0x000067b6      0x570 lib/libfupdate_core.a(fupdate_common.c.obj)
 .debug_line    0x00006d26      0x6ed lib/libfsmount.a(fs_mount.c.obj)
 .debug_line    0x00007413     0x163e lib/libsffs_core.a(sffs.c.obj)
 .debug_line    0x00008a51      0x3c9 lib/libsffs_core.a(lzmar.c.obj)
 .debug_line    0x00008e1a      0xf16 lib/libsffs_core.a(LzmaEnc.c.obj)
 .debug_line    0x00009d30      0x989 lib/libsffs_core.a(LzFind.c.obj)
 .debug_line    0x0000a6b9      0x1db lib/libbdev.a(block_device.c.obj)
 .debug_line    0x0000a894      0x229 lib/libbdev.a(partition_block_device.c.obj)
 .debug_line    0x0000aabd      0x7ce lib/libbdev_core.a(flash_block_device_v2.c.obj)
 .debug_line    0x0000b28b      0x516 lib/libboot_ex_ql.a(quec_boot_fota.c.obj)
 .debug_line    0x0000b7a1      0x2d4 lib/libhal.a(hal_lzma.c.obj)
 .debug_line    0x0000ba75      0x2e4 lib/libboot_calclib_crc.a(crc32.c.obj)
 .debug_line    0x0000bd59      0x3f3 lib/libboot_ex_fat_rdonly.a(quec_boot_pff_rdonly.c.obj)
 .debug_line    0x0000c14c      0x292 lib/libboot_ex_fat_rdonly.a(quec_boot_vfs.c.obj)
 .debug_line    0x0000c3de      0x2b7 lib/libboot_ex_fat_rdonly.a(pff_rdonly.c.obj)
 .debug_line    0x0000c695      0x15d lib/libboot_ex_fat_rdonly.a(quec_boot_block_device.c.obj)
 .debug_line    0x0000c7f2       0xfe lib/libboot_ex_fat_rdonly.a(diskio.c.obj)
 .debug_line    0x0000c8f0      0x3a6 lib/libboot_ex_fat_rdonly.a(pff_basic.c.obj)
 .debug_line    0x0000cc96      0x33b lib/libboot_ex_sdmmc.a(quec_boot_sdmmc.c.obj)
 .debug_line    0x0000cfd1      0x7aa lib/libboot_ex_sdmmc.a(quec_boot_sd.c.obj)
 .debug_line    0x0000d77b      0x36d lib/libboot_ex_sdmmc.a(quec_boot_ifc.c.obj)
 .debug_line    0x0000dae8      0x50e lib/libboot_ex_spi6nor.a(quec_spi6_ext_norflash_cfg.c.obj)
 .debug_line    0x0000dff6      0x297 lib/libboot_ex_spi6nor.a(quec_boot_pin_power_domain.c.obj)
 .debug_line    0x0000e28d      0x1f6 lib/libboot_ex_ql_pin.a(quec_boot_pin_map.c.obj)
 .debug_line    0x0000e483      0x50b lib/libcalclib.a(decompress_unlzma.c.obj)
 .debug_line    0x0000e98e      0x205 lib/libhal_prop.a(ql_hal_spi_flash_prop.c.obj)
 .debug_line    0x0000eb93      0x13f lib/libfs_partinfo.a(ql_fs_part_info.c.obj)

.debug_str      0x00000000    0x1a2f8
 .debug_str     0x00000000     0x2279 components/bootloader/CMakeFiles/boot2.dir/boot/boot2_start_8910.c.obj
                               0x23c3 (size before relaxing)
 .debug_str     0x00002279     0x1f4a lib/libbootloader.a(boot_platform_8910.c.obj)
                               0x230e (size before relaxing)
 .debug_str     0x000041c3      0xa1a lib/libbootloader.a(boot_secure.c.obj)
                               0x112a (size before relaxing)
 .debug_str     0x00004bdd       0x40 lib/libbootloader.a(boot_entry_v7a.S.obj)
                                 0x74 (size before relaxing)
 .debug_str     0x00004c1d      0x143 lib/libbootloader.a(boot_sffs_port.c.obj)
                                0x36c (size before relaxing)
 .debug_str     0x00004d60      0x18c lib/libbootloader.a(boot_delay.c.obj)
                                0x37f (size before relaxing)
 .debug_str     0x00004eec      0x1ab lib/libbootloader.a(boot_mem.c.obj)
                                0x47f (size before relaxing)
 .debug_str     0x00005097      0x67f lib/libbootloader.a(boot_spi_flash.c.obj)
                                0xe20 (size before relaxing)
 .debug_str     0x00005716      0x32f lib/libbootloader.a(boot_debuguart.c.obj)
                                0x593 (size before relaxing)
 .debug_str     0x00005a45       0x80 lib/libbootloader.a(boot_trace.c.obj)
                                0x2c2 (size before relaxing)
 .debug_str     0x00005ac5      0x7b0 lib/libbootloader.a(boot_vfs.c.obj)
                               0x19c6 (size before relaxing)
 .debug_str     0x00006275      0xaf2 lib/libbootloader.a(boot_irq.c.obj)
                               0x10f2 (size before relaxing)
 .debug_str     0x00006d67      0x143 lib/libbootloader.a(boot_timer.c.obj)
                                0xf7e (size before relaxing)
 .debug_str     0x00006eaa      0x27f lib/libbootloader.a(boot_mmu.c.obj)
                                0x4d9 (size before relaxing)
 .debug_str     0x00007129      0x2d4 lib/libbootloader.a(boot_override.c.obj)
                                0x5b0 (size before relaxing)
 .debug_str     0x000073fd      0x4da lib/libbootloader.a(boot_adi_bus.c.obj)
                                0x70e (size before relaxing)
 .debug_str     0x000078d7      0xd9d lib/libbootloader.a(boot_log.c.obj)
                               0x1451 (size before relaxing)
 .debug_str     0x00008674     0x5e04 lib/libhal.a(hal_clock_init.c.obj)
                               0x7833 (size before relaxing)
 .debug_str     0x0000e478     0x1c4c lib/libhal.a(hal_chip_8910.c.obj)
                               0x308c (size before relaxing)
 .debug_str     0x000100c4     0x1e92 lib/libhal.a(hal_pmu_8910.c.obj)
                               0x5ef0 (size before relaxing)
 .debug_str     0x00011f56      0x145 lib/libhal.a(hal_efuse_8910.c.obj)
                               0x1755 (size before relaxing)
 .debug_str     0x0001209b       0xe9 lib/libhal.a(hal_delay.c.obj)
                                0x42c (size before relaxing)
 .debug_str     0x00012184       0x3e lib/libhal.a(hal_reg_apply.c.obj)
                                0x281 (size before relaxing)
 .debug_str     0x000121c2      0x27c lib/libhal.a(hal_chip_armv7a.c.obj)
                                0x4bf (size before relaxing)
 .debug_str     0x0001243e      0x329 lib/libhal.a(hal_hwspinlock.c.obj)
                                0x5a7 (size before relaxing)
 .debug_str     0x00012767      0xb1b lib/libhal.a(hal_spi_flash.c.obj)
                               0x1758 (size before relaxing)
 .debug_str     0x00013282      0xa06 lib/libfupdate_core.a(fupdate_bootloader.c.obj)
                               0x136d (size before relaxing)
 .debug_str     0x00013c88       0xf8 lib/libfupdate_core.a(fupdate_common.c.obj)
                                0xf65 (size before relaxing)
 .debug_str     0x00013d80      0x453 lib/libfsmount.a(fs_mount.c.obj)
                                0xdb1 (size before relaxing)
 .debug_str     0x000141d3      0xa79 lib/libsffs_core.a(sffs.c.obj)
                               0x17e7 (size before relaxing)
 .debug_str     0x00014c4c      0x284 lib/libsffs_core.a(lzmar.c.obj)
                                0x9c4 (size before relaxing)
 .debug_str     0x00014ed0      0xcd7 lib/libsffs_core.a(LzmaEnc.c.obj)
                               0x1492 (size before relaxing)
 .debug_str     0x00015ba7      0x4be lib/libsffs_core.a(LzFind.c.obj)
                                0xd65 (size before relaxing)
 .debug_str     0x00016065       0x3c lib/libbdev.a(block_device.c.obj)
                                0x757 (size before relaxing)
 .debug_str     0x000160a1       0x68 lib/libbdev.a(partition_block_device.c.obj)
                                0x7b9 (size before relaxing)
 .debug_str     0x00016109      0x5fe lib/libbdev_core.a(flash_block_device_v2.c.obj)
                                0xf67 (size before relaxing)
 .debug_str     0x00016707      0x52a lib/libboot_ex_ql.a(quec_boot_fota.c.obj)
                               0x1bcc (size before relaxing)
 .debug_str     0x00016c31     0x12b2 lib/libhal.a(hal_lzma.c.obj)
                               0x283d (size before relaxing)
 .debug_str     0x00017ee3       0xfd lib/libboot_calclib_crc.a(crc32.c.obj)
                                0x35a (size before relaxing)
 .debug_str     0x00017fe0      0x2a4 lib/libboot_ex_fat_rdonly.a(quec_boot_pff_rdonly.c.obj)
                                0xb65 (size before relaxing)
 .debug_str     0x00018284       0x92 lib/libboot_ex_fat_rdonly.a(quec_boot_vfs.c.obj)
                               0x1078 (size before relaxing)
 .debug_str     0x00018316      0x1cb lib/libboot_ex_fat_rdonly.a(pff_rdonly.c.obj)
                                0x514 (size before relaxing)
 .debug_str     0x000184e1       0x57 lib/libboot_ex_fat_rdonly.a(quec_boot_block_device.c.obj)
                                0x29b (size before relaxing)
 .debug_str     0x00018538       0x54 lib/libboot_ex_fat_rdonly.a(diskio.c.obj)
                                0x299 (size before relaxing)
 .debug_str     0x0001858c       0x86 lib/libboot_ex_fat_rdonly.a(pff_basic.c.obj)
                                0x48f (size before relaxing)
 .debug_str     0x00018612      0x704 lib/libboot_ex_sdmmc.a(quec_boot_sdmmc.c.obj)
                               0x1eca (size before relaxing)
 .debug_str     0x00018d16      0x95d lib/libboot_ex_sdmmc.a(quec_boot_sd.c.obj)
                               0x2b49 (size before relaxing)
 .debug_str     0x00019673      0x3c3 lib/libboot_ex_sdmmc.a(quec_boot_ifc.c.obj)
                                0xb75 (size before relaxing)
 .debug_str     0x00019a36      0x313 lib/libboot_ex_spi6nor.a(quec_spi6_ext_norflash_cfg.c.obj)
                               0x1cc8 (size before relaxing)
 .debug_str     0x00019d49      0x220 lib/libboot_ex_spi6nor.a(quec_boot_pin_power_domain.c.obj)
                               0x1497 (size before relaxing)
 .debug_str     0x00019f69       0x37 lib/libboot_ex_ql_pin.a(quec_boot_pin_map.c.obj)
                               0x18b9 (size before relaxing)
 .debug_str     0x00019fa0      0x281 lib/libcalclib.a(decompress_unlzma.c.obj)
                                0x940 (size before relaxing)
 .debug_str     0x0001a221       0x9b lib/libhal_prop.a(ql_hal_spi_flash_prop.c.obj)
                               0x1298 (size before relaxing)
 .debug_str     0x0001a2bc       0x3c lib/libfs_partinfo.a(ql_fs_part_info.c.obj)
                                0x610 (size before relaxing)

.debug_frame    0x00000000     0x4b5c
 .debug_frame   0x00000000       0x70 components/bootloader/CMakeFiles/boot2.dir/boot/boot2_start_8910.c.obj
 .debug_frame   0x00000070       0xe0 lib/libbootloader.a(boot_platform_8910.c.obj)
 .debug_frame   0x00000150      0x140 lib/libbootloader.a(boot_secure.c.obj)
 .debug_frame   0x00000290       0x80 lib/libbootloader.a(boot_sffs_port.c.obj)
 .debug_frame   0x00000310       0x50 lib/libbootloader.a(boot_delay.c.obj)
 .debug_frame   0x00000360      0x170 lib/libbootloader.a(boot_mem.c.obj)
 .debug_frame   0x000004d0      0x1f8 lib/libbootloader.a(boot_spi_flash.c.obj)
 .debug_frame   0x000006c8       0x58 lib/libbootloader.a(boot_debuguart.c.obj)
 .debug_frame   0x00000720       0x5c lib/libbootloader.a(boot_trace.c.obj)
 .debug_frame   0x0000077c      0x428 lib/libbootloader.a(boot_vfs.c.obj)
 .debug_frame   0x00000ba4       0xb0 lib/libbootloader.a(boot_irq.c.obj)
 .debug_frame   0x00000c54       0x48 lib/libbootloader.a(boot_timer.c.obj)
 .debug_frame   0x00000c9c       0x64 lib/libbootloader.a(boot_mmu.c.obj)
 .debug_frame   0x00000d00      0x120 lib/libbootloader.a(boot_override.c.obj)
 .debug_frame   0x00000e20       0xb0 lib/libbootloader.a(boot_adi_bus.c.obj)
 .debug_frame   0x00000ed0      0x55c lib/libbootloader.a(boot_log.c.obj)
 .debug_frame   0x0000142c      0x138 lib/libhal.a(hal_clock_init.c.obj)
 .debug_frame   0x00001564      0x228 lib/libhal.a(hal_chip_8910.c.obj)
 .debug_frame   0x0000178c      0x258 lib/libhal.a(hal_pmu_8910.c.obj)
 .debug_frame   0x000019e4       0xec lib/libhal.a(hal_efuse_8910.c.obj)
 .debug_frame   0x00001ad0       0x5c lib/libhal.a(hal_delay.c.obj)
 .debug_frame   0x00001b2c       0x5c lib/libhal.a(hal_reg_apply.c.obj)
 .debug_frame   0x00001b88       0x20 lib/libhal.a(hal_chip_armv7a.c.obj)
 .debug_frame   0x00001ba8       0x7c lib/libhal.a(hal_hwspinlock.c.obj)
 .debug_frame   0x00001c24      0x4d0 lib/libhal.a(hal_spi_flash.c.obj)
 .debug_frame   0x000020f4      0x118 lib/libfupdate_core.a(fupdate_bootloader.c.obj)
 .debug_frame   0x0000220c      0x1c8 lib/libfupdate_core.a(fupdate_common.c.obj)
 .debug_frame   0x000023d4      0x27c lib/libfsmount.a(fs_mount.c.obj)
 .debug_frame   0x00002650      0x78c lib/libsffs_core.a(sffs.c.obj)
 .debug_frame   0x00002ddc      0x10c lib/libsffs_core.a(lzmar.c.obj)
 .debug_frame   0x00002ee8      0x678 lib/libsffs_core.a(LzmaEnc.c.obj)
 .debug_frame   0x00003560      0x3d4 lib/libsffs_core.a(LzFind.c.obj)
 .debug_frame   0x00003934       0x60 lib/libbdev.a(block_device.c.obj)
 .debug_frame   0x00003994       0x98 lib/libbdev.a(partition_block_device.c.obj)
 .debug_frame   0x00003a2c      0x2bc lib/libbdev_core.a(flash_block_device_v2.c.obj)
 .debug_frame   0x00003ce8      0x118 lib/libboot_ex_ql.a(quec_boot_fota.c.obj)
 .debug_frame   0x00003e00       0xc8 lib/libhal.a(hal_lzma.c.obj)
 .debug_frame   0x00003ec8       0x20 ../../prebuilts/win32/gcc-arm-none-eabi/bin/../lib/gcc/arm-none-eabi/7.2.1/thumb/v7-ar/fpv3/hard/libgcc.a(_udivsi3.o)
 .debug_frame   0x00003ee8       0x20 ../../prebuilts/win32/gcc-arm-none-eabi/bin/../lib/gcc/arm-none-eabi/7.2.1/thumb/v7-ar/fpv3/hard/libgcc.a(_divsi3.o)
 .debug_frame   0x00003f08      0x198 lib/libboot_calclib_crc.a(crc32.c.obj)
 .debug_frame   0x000040a0      0x120 lib/libboot_ex_fat_rdonly.a(quec_boot_pff_rdonly.c.obj)
 .debug_frame   0x000041c0       0x30 lib/libboot_ex_fat_rdonly.a(quec_boot_vfs.c.obj)
 .debug_frame   0x000041f0       0xc8 lib/libboot_ex_fat_rdonly.a(pff_rdonly.c.obj)
 .debug_frame   0x000042b8       0x54 lib/libboot_ex_fat_rdonly.a(quec_boot_block_device.c.obj)
 .debug_frame   0x0000430c       0x30 lib/libboot_ex_fat_rdonly.a(diskio.c.obj)
 .debug_frame   0x0000433c      0x170 lib/libboot_ex_fat_rdonly.a(pff_basic.c.obj)
 .debug_frame   0x000044ac       0x5c lib/libboot_ex_sdmmc.a(quec_boot_sdmmc.c.obj)
 .debug_frame   0x00004508      0x1a4 lib/libboot_ex_sdmmc.a(quec_boot_sd.c.obj)
 .debug_frame   0x000046ac      0x108 lib/libboot_ex_sdmmc.a(quec_boot_ifc.c.obj)
 .debug_frame   0x000047b4      0x16c lib/libboot_ex_spi6nor.a(quec_spi6_ext_norflash_cfg.c.obj)
 .debug_frame   0x00004920       0x6c lib/libboot_ex_spi6nor.a(quec_boot_pin_power_domain.c.obj)
 .debug_frame   0x0000498c      0x180 lib/libcalclib.a(decompress_unlzma.c.obj)
 .debug_frame   0x00004b0c       0x30 lib/libhal_prop.a(ql_hal_spi_flash_prop.c.obj)
 .debug_frame   0x00004b3c       0x20 lib/libfs_partinfo.a(ql_fs_part_info.c.obj)
